(dp0
cnumpy.core.multiarray
scalar
p1
(cnumpy
dtype
p2
(S'i8'
p3
I0
I1
tp4
Rp5
(I3
S'<'
p6
NNNI-1
I-1
I0
tp7
bS'\x00\x00\x00\x00\x00\x00\x00\x00'
p8
tp9
Rp10
(dp11
S'to_messages'
p12
F2902.0
sS'deferral_payments'
p13
F2869717.0
sS'expenses'
p14
F13868.0
sS'poi'
p15
I00
sS'long_term_incentive'
p16
F304805.0
sS'email_address'
p17
S'phillip.allen@enron.com'
p18
sS'from_poi_to_this_person'
p19
F47.0
sS'deferred_income'
p20
F-3081055.0
sS'index'
p21
S'ALLEN PHILLIP K'
p22
sS'restricted_stock_deferred'
p23
F-126027.0
sS'shared_receipt_with_poi'
p24
F1407.0
sS'loan_advances'
p25
F0.0
sS'from_messages'
p26
F2195.0
sS'other'
p27
F152.0
sS'percent_of_stock'
p28
F0.9309965431596617
sS'director_fees'
p29
F0.0
sS'percent_of_salary'
p30
F0.04503458847276874
sS'fraction_from_poi'
p31
F0.016195727084769126
sS'bonus'
p32
F4175000.0
sS'total_stock_value'
p33
F1729541.0
sS'from_this_person_to_poi'
p34
F65.0
sS'restricted_stock'
p35
F126027.0
sS'salary'
p36
F201955.0
sS'total_payments'
p37
F4484442.0
sS'fraction_to_poi'
p38
F0.029612756264236904
sS'exercised_stock_options'
p39
F1729541.0
ssg1
(g5
S'\x01\x00\x00\x00\x00\x00\x00\x00'
p40
tp41
Rp42
(dp43
g12
S'NaN'
p44
sg13
F178980.0
sg14
F3486.0
sg15
I00
sg16
F0.0
sg17
S'NaN'
p45
sg19
S'NaN'
p46
sg20
F0.0
sg21
S'BADUM JAMES P'
p47
sg23
F0.0
sg24
S'NaN'
p48
sg25
F0.0
sg26
S'NaN'
p49
sg27
F0.0
sg28
F0.0
sg29
F0.0
sg30
F0.0
sg31
S'NaN'
p50
sg32
F0.0
sg33
F257817.0
sg34
S'NaN'
p51
sg35
F0.0
sg36
F0.0
sg37
F182466.0
sg38
S'NaN'
p52
sg39
F257817.0
ssg1
(g5
S'\x02\x00\x00\x00\x00\x00\x00\x00'
p53
tp54
Rp55
(dp56
g12
F566.0
sg13
F0.0
sg14
F56301.0
sg15
I00
sg16
F0.0
sg17
S'james.bannantine@enron.com'
p57
sg19
F39.0
sg20
F-5104.0
sg21
S'BANNANTINE JAMES M'
p58
sg23
F-560222.0
sg24
F465.0
sg25
F0.0
sg26
F29.0
sg27
F864523.0
sg28
F0.0
sg29
F0.0
sg30
F0.0005206303884426602
sg31
F0.06890459363957598
sg32
F0.0
sg33
F5243487.0
sg34
F0.0
sg35
F1757552.0
sg36
F477.0
sg37
F916197.0
sg38
F0.0
sg39
F4046157.0
ssg1
(g5
S'\x03\x00\x00\x00\x00\x00\x00\x00'
p59
tp60
Rp61
(dp62
g12
g44
sg13
F1295738.0
sg14
F11200.0
sg15
I00
sg16
F1586055.0
sg17
g45
sg19
g46
sg20
F-1386055.0
sg21
S'BAXTER JOHN C'
p63
sg23
F0.0
sg24
g48
sg25
F0.0
sg26
g49
sg27
F2660303.0
sg28
F0.21297957898551792
sg29
F0.0
sg30
F0.047406059588491506
sg31
g50
sg32
F1200000.0
sg33
F10623258.0
sg34
g51
sg35
F3942714.0
sg36
F267102.0
sg37
F5634343.0
sg38
g52
sg39
F6680544.0
ssg1
(g5
S'\x04\x00\x00\x00\x00\x00\x00\x00'
p64
tp65
Rp66
(dp67
g12
g44
sg13
F260455.0
sg14
F129142.0
sg15
I00
sg16
F0.0
sg17
S'frank.bay@enron.com'
p68
sg19
g46
sg20
F-201641.0
sg21
S'BAY FRANKLIN R'
p69
sg23
F-82782.0
sg24
g48
sg25
F0.0
sg26
g49
sg27
F69.0
sg28
F0.48326921961686414
sg29
F0.0
sg30
F0.2895640428369836
sg31
g50
sg32
F400000.0
sg33
F63014.0
sg34
g51
sg35
F145796.0
sg36
F239671.0
sg37
F827696.0
sg38
g52
sg39
F0.0
ssg1
(g5
S'\x05\x00\x00\x00\x00\x00\x00\x00'
p70
tp71
Rp72
(dp73
g12
g44
sg13
F684694.0
sg14
F0.0
sg15
I00
sg16
F93750.0
sg17
g45
sg19
g46
sg20
F0.0
sg21
S'BAZELIDES PHILIP J'
p74
sg23
F0.0
sg24
g48
sg25
F0.0
sg26
g49
sg27
F874.0
sg28
F0.0
sg29
F0.0
sg30
F0.0939595598835533
sg31
g50
sg32
F0.0
sg33
F1599641.0
sg34
g51
sg35
F0.0
sg36
F80818.0
sg37
F860136.0
sg38
g52
sg39
F1599641.0
ssg1
(g5
S'\x06\x00\x00\x00\x00\x00\x00\x00'
p75
tp76
Rp77
(dp78
g12
F7315.0
sg13
F0.0
sg14
F37172.0
sg15
I00
sg16
F0.0
sg17
S'sally.beck@enron.com'
p79
sg19
F144.0
sg20
F0.0
sg21
S'BECK SALLY W'
p80
sg23
F0.0
sg24
F2639.0
sg25
F0.0
sg26
F4343.0
sg27
F566.0
sg28
F0.7223435300721931
sg29
F0.0
sg30
F0.23871389830228631
sg31
F0.01968557758031442
sg32
F700000.0
sg33
F126027.0
sg34
F386.0
sg35
F126027.0
sg36
F231330.0
sg37
F969068.0
sg38
F0.08887865530739121
sg39
F0.0
ssg1
(g5
S'\x07\x00\x00\x00\x00\x00\x00\x00'
p81
tp82
Rp83
(dp84
g12
F7991.0
sg13
F2144013.0
sg14
F17355.0
sg15
I01
sg16
F0.0
sg17
S'tim.belden@enron.com'
p85
sg19
F228.0
sg20
F-2334434.0
sg21
S'BELDEN TIMOTHY N'
p86
sg23
F0.0
sg24
F5521.0
sg25
F0.0
sg26
F484.0
sg27
F210698.0
sg28
F0.9542624640333864
sg29
F0.0
sg30
F0.03889738132153562
sg31
F0.028532098610937303
sg32
F5249999.0
sg33
F1110705.0
sg34
F108.0
sg35
F157569.0
sg36
F213999.0
sg37
F5501630.0
sg38
F0.2231404958677686
sg39
F953136.0
ssg1
(g5
S'\x08\x00\x00\x00\x00\x00\x00\x00'
p87
tp88
Rp89
(dp90
g12
g44
sg13
F-102500.0
sg14
F0.0
sg15
I00
sg16
F0.0
sg17
g45
sg19
g46
sg20
F0.0
sg21
S'BELFER ROBERT'
p91
sg23
F44093.0
sg24
g48
sg25
F0.0
sg26
g49
sg27
F0.0
sg28
F0.0
sg29
F3285.0
sg30
F0.0
sg31
g50
sg32
F0.0
sg33
F-44093.0
sg34
g51
sg35
F0.0
sg36
F0.0
sg37
F102500.0
sg38
g52
sg39
F3285.0
ssg1
(g5
S'\t\x00\x00\x00\x00\x00\x00\x00'
p92
tp93
Rp94
(dp95
g12
g44
sg13
F0.0
sg14
F11892.0
sg15
I00
sg16
F0.0
sg17
S'david.berberian@enron.com'
p96
sg19
g46
sg20
F0.0
sg21
S'BERBERIAN DAVID'
p97
sg23
F0.0
sg24
g48
sg25
F0.0
sg26
g49
sg27
F0.0
sg28
F0.0
sg29
F0.0
sg30
F0.9479503138212663
sg31
g50
sg32
F0.0
sg33
F2493616.0
sg34
g51
sg35
F869220.0
sg36
F216582.0
sg37
F228474.0
sg38
g52
sg39
F1624396.0
ssg1
(g5
S'\n\x00\x00\x00\x00\x00\x00\x00'
p98
tp99
Rp100
(dp101
g12
F383.0
sg13
F0.0
sg14
F59175.0
sg15
I00
sg16
F180250.0
sg17
S'rick.bergsieker@enron.com'
p102
sg19
F4.0
sg20
F-485813.0
sg21
S'BERGSIEKER RICHARD P'
p103
sg23
F0.0
sg24
F233.0
sg25
F0.0
sg26
F59.0
sg27
F427316.0
sg28
F0.4039751151329078
sg29
F0.0
sg30
F0.3036632463440252
sg31
F0.010443864229765013
sg32
F250000.0
sg33
F659249.0
sg34
F0.0
sg35
F659249.0
sg36
F187922.0
sg37
F618850.0
sg38
F0.0
sg39
F0.0
ssg1
(g5
S'\x0b\x00\x00\x00\x00\x00\x00\x00'
p104
tp105
Rp106
(dp107
g12
F523.0
sg13
F0.0
sg14
F0.0
sg15
I00
sg16
F0.0
sg17
S'sanjay.bhatnagar@enron.com'
p108
sg19
F0.0
sg20
F0.0
sg21
S'BHATNAGAR SANJAY'
p109
sg23
F15456290.0
sg24
F463.0
sg25
F0.0
sg26
F29.0
sg27
F137864.0
sg28
F0.0
sg29
F137864.0
sg30
F0.0
sg31
F0.0
sg32
F0.0
sg33
F0.0
sg34
F1.0
sg35
F-2604490.0
sg36
F0.0
sg37
F15456290.0
sg38
F0.034482758620689655
sg39
F2604490.0
ssg1
(g5
S'\x0c\x00\x00\x00\x00\x00\x00\x00'
p110
tp111
Rp112
(dp113
g12
F1607.0
sg13
F0.0
sg14
F38559.0
sg15
I00
sg16
F369721.0
sg17
S'philippe.bibi@enron.com'
p114
sg19
F23.0
sg20
F0.0
sg21
S'BIBI PHILIPPE A'
p115
sg23
F0.0
sg24
F1336.0
sg25
F0.0
sg26
F40.0
sg27
F425688.0
sg28
F0.4883783056496091
sg29
F0.0
sg30
F0.10432981554439774
sg31
F0.01431238332296204
sg32
F1000000.0
sg33
F1843816.0
sg34
F8.0
sg35
F378082.0
sg36
F213625.0
sg37
F2047593.0
sg38
F0.2
sg39
F1465734.0
ssg1
(g5
S'\r\x00\x00\x00\x00\x00\x00\x00'
p116
tp117
Rp118
(dp119
g12
F2475.0
sg13
F0.0
sg14
F84208.0
sg15
I00
sg16
F831809.0
sg17
S'jeremy.blachman@enron.com'
p120
sg19
F25.0
sg20
F0.0
sg21
S'BLACHMAN JEREMY M'
p121
sg23
F0.0
sg24
F2326.0
sg25
F0.0
sg26
F14.0
sg27
F272.0
sg28
F0.4218707735372872
sg29
F0.0
sg30
F0.12335799209364538
sg31
F0.010101010101010102
sg32
F850000.0
sg33
F954354.0
sg34
F2.0
sg35
F189041.0
sg36
F248546.0
sg37
F2014835.0
sg38
F0.14285714285714285
sg39
F765313.0
ssg1
(g5
S'\x0e\x00\x00\x00\x00\x00\x00\x00'
p122
tp123
Rp124
(dp125
g12
g44
sg13
F0.0
sg14
F1279.0
sg15
I00
sg16
F0.0
sg17
g45
sg19
g46
sg20
F-113784.0
sg21
S'BLAKE JR. NORMAN P'
p126
sg23
F0.0
sg24
g48
sg25
F0.0
sg26
g49
sg27
F0.0
sg28
F0.0
sg29
F113784.0
sg30
F0.0
sg31
g50
sg32
F0.0
sg33
F0.0
sg34
g51
sg35
F0.0
sg36
F0.0
sg37
F1279.0
sg38
g52
sg39
F0.0
ssg1
(g5
S'\x0f\x00\x00\x00\x00\x00\x00\x00'
p127
tp128
Rp129
(dp130
g12
F1858.0
sg13
F0.0
sg14
F65907.0
sg15
I01
sg16
F974293.0
sg17
S'raymond.bowen@enron.com'
p131
sg19
F140.0
sg20
F-833.0
sg21
S'BOWEN JR RAYMOND M'
p132
sg23
F0.0
sg24
F1593.0
sg25
F0.0
sg26
F27.0
sg27
F1621.0
sg28
F0.5056958205926081
sg29
F0.0
sg30
F0.10436100837994162
sg31
F0.07534983853606028
sg32
F1350000.0
sg33
F252055.0
sg34
F15.0
sg35
F252055.0
sg36
F278601.0
sg37
F2669589.0
sg38
F0.5555555555555556
sg39
F0.0
ssg1
(g5
S'\x10\x00\x00\x00\x00\x00\x00\x00'
p133
tp134
Rp135
(dp136
g12
F1486.0
sg13
F0.0
sg14
F49288.0
sg15
I00
sg16
F0.0
sg17
S'michael.brown@enron.com'
p137
sg19
F13.0
sg20
F0.0
sg21
S'BROWN MICHAEL'
p138
sg23
F0.0
sg24
F761.0
sg25
F0.0
sg26
F41.0
sg27
F0.0
sg28
F0.0
sg29
F0.0
sg30
F0.0
sg31
F0.008748317631224764
sg32
F0.0
sg33
F0.0
sg34
F1.0
sg35
F0.0
sg36
F0.0
sg37
F49288.0
sg38
F0.024390243902439025
sg39
F0.0
ssg1
(g5
S'\x11\x00\x00\x00\x00\x00\x00\x00'
p139
tp140
Rp141
(dp142
g12
F1088.0
sg13
F0.0
sg14
F600.0
sg15
I00
sg16
F304805.0
sg17
S'john.buchanan@enron.com'
p143
sg19
F0.0
sg20
F0.0
sg21
S'BUCHANAN HAROLD G'
p144
sg23
F0.0
sg24
F23.0
sg25
F0.0
sg26
F125.0
sg27
F1215.0
sg28
F0.47409677453000415
sg29
F0.0
sg30
F0.23516811945721608
sg31
F0.0
sg32
F500000.0
sg33
F1014505.0
sg34
F0.0
sg35
F189041.0
sg36
F248017.0
sg37
F1054637.0
sg38
F0.0
sg39
F825464.0
ssg1
(g5
S'\x12\x00\x00\x00\x00\x00\x00\x00'
p145
tp146
Rp147
(dp148
g12
g44
sg13
F0.0
sg14
F9410.0
sg15
I00
sg16
F175000.0
sg17
S'bob.butts@enron.com'
p149
sg19
g46
sg20
F-75000.0
sg21
S'BUTTS ROBERT H'
p150
sg23
F0.0
sg24
g48
sg25
F0.0
sg26
g49
sg27
F150656.0
sg28
F0.5898164648445794
sg29
F0.0
sg30
F0.20566192349372672
sg31
g50
sg32
F750000.0
sg33
F417619.0
sg34
g51
sg35
F417619.0
sg36
F261516.0
sg37
F1271582.0
sg38
g52
sg39
F0.0
ssg1
(g5
S'\x13\x00\x00\x00\x00\x00\x00\x00'
p151
tp152
Rp153
(dp154
g12
F3523.0
sg13
F649584.0
sg14
F0.0
sg15
I00
sg16
F769862.0
sg17
S'rick.buy@enron.com'
p155
sg19
F156.0
sg20
F-694862.0
sg21
S'BUY RICHARD B'
p156
sg23
F0.0
sg24
F2333.0
sg25
F0.0
sg26
F1053.0
sg27
F400572.0
sg28
F0.38205171961479
sg29
F0.0
sg30
F0.14031740856865596
sg31
F0.04428044280442804
sg32
F900000.0
sg33
F3444470.0
sg34
F71.0
sg35
F901657.0
sg36
F330546.0
sg37
F2355702.0
sg38
F0.06742640075973409
sg39
F2542813.0
ssg1
(g5
S'\x14\x00\x00\x00\x00\x00\x00\x00'
p157
tp158
Rp159
(dp160
g12
F2598.0
sg13
F0.0
sg14
F35818.0
sg15
I01
sg16
F375304.0
sg17
S'christopher.calger@enron.com'
p161
sg19
F199.0
sg20
F-262500.0
sg21
S'CALGER CHRISTOPHER F'
p162
sg23
F0.0
sg24
F2188.0
sg25
F0.0
sg26
F144.0
sg27
F486.0
sg28
F0.7625219835087845
sg29
F0.0
sg30
F0.14651951415759315
sg31
F0.07659738260200154
sg32
F1250000.0
sg33
F126027.0
sg34
F25.0
sg35
F126027.0
sg36
F240189.0
sg37
F1639297.0
sg38
F0.1736111111111111
sg39
F0.0
ssg1
(g5
S'\x15\x00\x00\x00\x00\x00\x00\x00'
p163
tp164
Rp165
(dp166
g12
F312.0
sg13
F0.0
sg14
F0.0
sg15
I00
sg16
F75000.0
sg17
S'rebecca.carter@enron.com'
p167
sg19
F29.0
sg20
F-159792.0
sg21
S'CARTER REBECCA C'
p168
sg23
F-307301.0
sg24
F196.0
sg25
F0.0
sg26
F15.0
sg27
F540.0
sg28
F0.6281972623163308
sg29
F0.0
sg30
F0.5482256568325875
sg31
F0.09294871794871795
sg32
F300000.0
sg33
F0.0
sg34
F7.0
sg35
F307301.0
sg36
F261809.0
sg37
F477557.0
sg38
F0.4666666666666667
sg39
F0.0
ssg1
(g5
S'\x16\x00\x00\x00\x00\x00\x00\x00'
p169
tp170
Rp171
(dp172
g12
F1892.0
sg13
F0.0
sg14
F30674.0
sg15
I01
sg16
F350000.0
sg17
S'richard.causey@enron.com'
p173
sg19
F58.0
sg20
F-235000.0
sg21
S'CAUSEY RICHARD A'
p174
sg23
F0.0
sg24
F1585.0
sg25
F0.0
sg26
F49.0
sg27
F307895.0
sg28
F0.5351147660638778
sg29
F0.0
sg30
F0.22217376460729532
sg31
F0.0306553911205074
sg32
F1000000.0
sg33
F2502063.0
sg34
F12.0
sg35
F2502063.0
sg36
F415189.0
sg37
F1868758.0
sg38
F0.24489795918367346
sg39
F0.0
ssg1
(g5
S'\x17\x00\x00\x00\x00\x00\x00\x00'
p175
tp176
Rp177
(dp178
g12
g44
sg13
F0.0
sg14
F0.0
sg15
I00
sg16
F0.0
sg17
g45
sg19
g46
sg20
F-98784.0
sg21
S'CHAN RONNIE'
p179
sg23
F-32460.0
sg24
g48
sg25
F0.0
sg26
g49
sg27
F0.0
sg28
S'NaN'
p180
sg29
F98784.0
sg30
S'NaN'
p181
sg31
g50
sg32
F0.0
sg33
F0.0
sg34
g51
sg35
F32460.0
sg36
F0.0
sg37
F0.0
sg38
g52
sg39
F0.0
ssg1
(g5
S'\x18\x00\x00\x00\x00\x00\x00\x00'
p182
tp183
Rp184
(dp185
g12
g44
sg13
F0.0
sg14
F0.0
sg15
I00
sg16
F0.0
sg17
S'diomedes.christodoulou@enron.com'
p186
sg19
g46
sg20
F0.0
sg21
S'CHRISTODOULOU DIOMEDES'
p187
sg23
F0.0
sg24
g48
sg25
F0.0
sg26
g49
sg27
F0.0
sg28
g180
sg29
F0.0
sg30
g181
sg31
g50
sg32
F0.0
sg33
F6077885.0
sg34
g51
sg35
F950730.0
sg36
F0.0
sg37
F0.0
sg38
g52
sg39
F5127155.0
ssg1
(g5
S'\x19\x00\x00\x00\x00\x00\x00\x00'
p188
tp189
Rp190
(dp191
g12
g44
sg13
F0.0
sg14
F0.0
sg15
I00
sg16
F0.0
sg17
g45
sg19
g46
sg20
F0.0
sg21
S'CLINE KENNETH W'
p192
sg23
F-472568.0
sg24
g48
sg25
F0.0
sg26
g49
sg27
F0.0
sg28
g180
sg29
F0.0
sg30
g181
sg31
g50
sg32
F0.0
sg33
F189518.0
sg34
g51
sg35
F662086.0
sg36
F0.0
sg37
F0.0
sg38
g52
sg39
F0.0
ssg1
(g5
S'\x1a\x00\x00\x00\x00\x00\x00\x00'
p193
tp194
Rp195
(dp196
g12
F1758.0
sg13
F27610.0
sg14
F16514.0
sg15
I01
sg16
F0.0
sg17
S'wes.colwell@enron.com'
p197
sg19
F240.0
sg20
F-144062.0
sg21
S'COLWELL WESLEY'
p198
sg23
F0.0
sg24
F1132.0
sg25
F0.0
sg26
F40.0
sg27
F101740.0
sg28
F0.8051832328643588
sg29
F0.0
sg30
F0.19360765031428986
sg31
F0.13651877133105803
sg32
F1200000.0
sg33
F698242.0
sg34
F11.0
sg35
F698242.0
sg36
F288542.0
sg37
F1490344.0
sg38
F0.275
sg39
F0.0
ssg1
(g5
S'\x1b\x00\x00\x00\x00\x00\x00\x00'
p199
tp200
Rp201
(dp202
g12
F764.0
sg13
F0.0
sg14
F0.0
sg15
I00
sg16
F0.0
sg17
S'bill.cordes@enron.com'
p203
sg19
F10.0
sg20
F0.0
sg21
S'CORDES WILLIAM R'
p204
sg23
F0.0
sg24
F58.0
sg25
F0.0
sg26
F12.0
sg27
F0.0
sg28
g180
sg29
F0.0
sg30
g181
sg31
F0.013089005235602094
sg32
F0.0
sg33
F1038185.0
sg34
F0.0
sg35
F386335.0
sg36
F0.0
sg37
F0.0
sg38
F0.0
sg39
F651850.0
ssg1
(g5
S'\x1c\x00\x00\x00\x00\x00\x00\x00'
p205
tp206
Rp207
(dp208
g12
F102.0
sg13
F0.0
sg14
F27861.0
sg15
I00
sg16
F0.0
sg17
S'chip.cox@enron.com'
p209
sg19
F0.0
sg20
F-41250.0
sg21
S'COX DAVID'
p210
sg23
F0.0
sg24
F71.0
sg25
F0.0
sg26
F33.0
sg27
F494.0
sg28
F0.7263529003725282
sg29
F0.0
sg30
F0.28535500044035145
sg31
F0.0
sg32
F800000.0
sg33
F495633.0
sg34
F4.0
sg35
F378082.0
sg36
F314288.0
sg37
F1101393.0
sg38
F0.12121212121212122
sg39
F117551.0
ssg1
(g5
S'\x1d\x00\x00\x00\x00\x00\x00\x00'
p211
tp212
Rp213
(dp214
g12
g44
sg13
F0.0
sg14
F22344.0
sg15
I00
sg16
F275000.0
sg17
g45
sg19
g46
sg20
F0.0
sg21
S'CUMBERLAND MICHAEL S'
p215
sg23
F0.0
sg24
g48
sg25
F0.0
sg26
g49
sg27
F713.0
sg28
F0.4022496274549604
sg29
F0.0
sg30
F0.2288478580516761
sg31
g50
sg32
F325000.0
sg33
F207940.0
sg34
g51
sg35
F207940.0
sg36
F184899.0
sg37
F807956.0
sg38
g52
sg39
F0.0
ssg1
(g5
S'\x1e\x00\x00\x00\x00\x00\x00\x00'
p216
tp217
Rp218
(dp219
g12
F714.0
sg13
F0.0
sg14
F41626.0
sg15
I00
sg16
F335349.0
sg17
S'joseph.deffner@enron.com'
p220
sg19
F115.0
sg20
F0.0
sg21
S'DEFFNER JOSEPH M'
p221
sg23
F0.0
sg24
F552.0
sg25
F0.0
sg26
F74.0
sg27
F25553.0
sg28
F0.49642203815996205
sg29
F0.0
sg30
F0.17053834487928257
sg31
F0.16106442577030813
sg32
F600000.0
sg33
F159211.0
sg34
F4.0
sg35
F141833.0
sg36
F206121.0
sg37
F1208649.0
sg38
F0.05405405405405406
sg39
F17378.0
ssg1
(g5
S'\x1f\x00\x00\x00\x00\x00\x00\x00'
p222
tp223
Rp224
(dp225
g12
F3093.0
sg13
F0.0
sg14
F86174.0
sg15
I01
sg16
F1294981.0
sg17
S'david.delainey@enron.com'
p226
sg19
F66.0
sg20
F0.0
sg21
S'DELAINEY DAVID W'
p227
sg23
F0.0
sg24
F2097.0
sg25
F0.0
sg26
F3069.0
sg27
F1661.0
sg28
F0.6318477819720769
sg29
F0.0
sg30
F0.07690914386942319
sg31
F0.02133850630455868
sg32
F3000000.0
sg33
F3614261.0
sg34
F609.0
sg35
F1323148.0
sg36
F365163.0
sg37
F4747979.0
sg38
F0.198435972629521
sg39
F2291113.0
ssg1
(g5
S' \x00\x00\x00\x00\x00\x00\x00'
p228
tp229
Rp230
(dp231
g12
F2181.0
sg13
F0.0
sg14
F51124.0
sg15
I00
sg16
F484000.0
sg17
S'james.derrick@enron.com'
p232
sg19
F64.0
sg20
F-1284000.0
sg21
S'DERRICK JR. JAMES V'
p233
sg23
F-1787380.0
sg24
F1401.0
sg25
F0.0
sg26
F909.0
sg27
F7482.0
sg28
F1.4519556935720106
sg29
F0.0
sg30
F0.8936333557781484
sg31
F0.029344337459880788
sg32
F800000.0
sg33
F8831913.0
sg34
F20.0
sg35
F1787380.0
sg36
F492375.0
sg37
F550981.0
sg38
F0.022002200220022004
sg39
F8831913.0
ssg1
(g5
S'!\x00\x00\x00\x00\x00\x00\x00'
p234
tp235
Rp236
(dp237
g12
g44
sg13
F875307.0
sg14
F52255.0
sg15
I00
sg16
F415657.0
sg17
S'timothy.detmering@enron.com'
p238
sg19
g46
sg20
F-775241.0
sg21
S'DETMERING TIMOTHY J'
p239
sg23
F-315068.0
sg24
g48
sg25
F0.0
sg26
g49
sg27
F1105.0
sg28
F0.3528191913716199
sg29
F0.0
sg30
F0.17474927007935526
sg31
g50
sg32
F425000.0
sg33
F2027865.0
sg34
g51
sg35
F315068.0
sg36
F210500.0
sg37
F1204583.0
sg38
g52
sg39
F2027865.0
ssg1
(g5
S'"\x00\x00\x00\x00\x00\x00\x00'
p240
tp241
Rp242
(dp243
g12
F2572.0
sg13
F0.0
sg14
F3475.0
sg15
I00
sg16
F556416.0
sg17
S'janet.dietrich@enron.com'
p244
sg19
F305.0
sg20
F0.0
sg21
S'DIETRICH JANET R'
p245
sg23
F0.0
sg24
F1902.0
sg25
F0.0
sg26
F63.0
sg27
F473.0
sg28
F0.4253919277627788
sg29
F0.0
sg30
F0.1773175352224516
sg31
F0.11858475894245724
sg32
F600000.0
sg33
F1865087.0
sg34
F14.0
sg35
F315068.0
sg36
F250100.0
sg37
F1410464.0
sg38
F0.2222222222222222
sg39
F1550019.0
ssg1
(g5
S'#\x00\x00\x00\x00\x00\x00\x00'
p246
tp247
Rp248
(dp249
g12
g44
sg13
F0.0
sg14
F35812.0
sg15
I00
sg16
F694862.0
sg17
S'richard.dimichele@enron.com'
p250
sg19
g46
sg20
F0.0
sg21
S'DIMICHELE RICHARD G'
p251
sg23
F0.0
sg24
g48
sg25
F0.0
sg26
g49
sg27
F374689.0
sg28
F0.42227037042823706
sg29
F0.0
sg30
F0.11096758610409556
sg31
g50
sg32
F1000000.0
sg33
F8317782.0
sg34
g51
sg35
F126027.0
sg36
F262788.0
sg37
F2368151.0
sg38
g52
sg39
F8191755.0
ssg1
(g5
S'$\x00\x00\x00\x00\x00\x00\x00'
p252
tp253
Rp254
(dp255
g12
F176.0
sg13
F0.0
sg14
F28164.0
sg15
I00
sg16
F0.0
sg17
S'keith.dodson@enron.com'
p256
sg19
F10.0
sg20
F0.0
sg21
S'DODSON KEITH'
p257
sg23
F0.0
sg24
F114.0
sg25
F0.0
sg26
F14.0
sg27
F774.0
sg28
F0.21879033946883958
sg29
F0.0
sg30
F0.6907617341947422
sg31
F0.056818181818181816
sg32
F70000.0
sg33
F0.0
sg34
F3.0
sg35
F0.0
sg36
F221003.0
sg37
F319941.0
sg38
F0.21428571428571427
sg39
F0.0
ssg1
(g5
S'%\x00\x00\x00\x00\x00\x00\x00'
p258
tp259
Rp260
(dp261
g12
F865.0
sg13
F0.0
sg14
F96268.0
sg15
I00
sg16
F0.0
sg17
S'jeff.donahue@enron.com'
p262
sg19
F188.0
sg20
F-300000.0
sg21
S'DONAHUE JR JEFFREY M'
p263
sg23
F0.0
sg24
F772.0
sg25
F0.0
sg26
F22.0
sg27
F891.0
sg28
F0.9134922809902256
sg29
F0.0
sg30
F0.3181248287201973
sg31
F0.21734104046242775
sg32
F800000.0
sg33
F1080988.0
sg34
F11.0
sg35
F315068.0
sg36
F278601.0
sg37
F875760.0
sg38
F0.5
sg39
F765920.0
ssg1
(g5
S'&\x00\x00\x00\x00\x00\x00\x00'
p264
tp265
Rp266
(dp267
g12
g44
sg13
F0.0
sg14
F0.0
sg15
I00
sg16
F0.0
sg17
g45
sg19
g46
sg20
F-25000.0
sg21
S'DUNCAN JOHN H'
p268
sg23
F0.0
sg24
g48
sg25
F0.0
sg26
g49
sg27
F0.0
sg28
F0.0
sg29
F102492.0
sg30
F0.0
sg31
g50
sg32
F0.0
sg33
F371750.0
sg34
g51
sg35
F0.0
sg36
F0.0
sg37
F77492.0
sg38
g52
sg39
F371750.0
ssg1
(g5
S"'\x00\x00\x00\x00\x00\x00\x00"
p269
tp270
Rp271
(dp272
g12
F904.0
sg13
F0.0
sg14
F25785.0
sg15
I00
sg16
F1105218.0
sg17
S'w.duran@enron.com'
p273
sg19
F106.0
sg20
F0.0
sg21
S'DURAN WILLIAM D'
p274
sg23
F0.0
sg24
F599.0
sg25
F0.0
sg26
F12.0
sg27
F1568.0
sg28
F0.3582922929416896
sg29
F0.0
sg30
F0.10065242637929396
sg31
F0.1172566371681416
sg32
F750000.0
sg33
F1640910.0
sg34
F3.0
sg35
F189041.0
sg36
F210692.0
sg37
F2093263.0
sg38
F0.25
sg39
F1451869.0
ssg1
(g5
S'(\x00\x00\x00\x00\x00\x00\x00'
p275
tp276
Rp277
(dp278
g12
g44
sg13
F0.0
sg14
F21530.0
sg15
I00
sg16
F2234774.0
sg17
S'john.echols@enron.com'
p279
sg19
g46
sg20
F0.0
sg21
S'ECHOLS JOHN B'
p280
sg23
F0.0
sg24
g48
sg25
F0.0
sg26
g49
sg27
F53775.0
sg28
F0.07428526432925606
sg29
F0.0
sg30
F0.06769058998842635
sg31
g50
sg32
F200000.0
sg33
F1008941.0
sg34
g51
sg35
F407503.0
sg36
F182245.0
sg37
F2692324.0
sg38
g52
sg39
F601438.0
ssg1
(g5
S')\x00\x00\x00\x00\x00\x00\x00'
p281
tp282
Rp283
(dp284
g12
g44
sg13
F0.0
sg14
F78552.0
sg15
I00
sg16
F0.0
sg17
S'steven.elliott@enron.com'
p285
sg19
g46
sg20
F-400729.0
sg21
S'ELLIOTT STEVEN'
p286
sg23
F0.0
sg24
g48
sg25
F0.0
sg26
g49
sg27
F12961.0
sg28
F1.6530877317274766
sg29
F0.0
sg30
F0.8073727712835046
sg31
g50
sg32
F350000.0
sg33
F6678735.0
sg34
g51
sg35
F1788391.0
sg36
F170941.0
sg37
F211725.0
sg38
g52
sg39
F4890344.0
ssg1
(g5
S'*\x00\x00\x00\x00\x00\x00\x00'
p287
tp288
Rp289
(dp290
g12
F1755.0
sg13
F0.0
sg14
F95924.0
sg15
I00
sg16
F374347.0
sg17
S'jim.fallon@enron.com'
p291
sg19
F42.0
sg20
F0.0
sg21
S'FALLON JAMES B'
p292
sg23
F0.0
sg24
F1604.0
sg25
F0.0
sg26
F75.0
sg27
F401481.0
sg28
F0.6800241544579664
sg29
F0.0
sg30
F0.08285087886321722
sg31
F0.023931623931623933
sg32
F2500000.0
sg33
F2332399.0
sg34
F37.0
sg35
F1392142.0
sg36
F304588.0
sg37
F3676340.0
sg38
F0.49333333333333335
sg39
F940257.0
ssg1
(g5
S'+\x00\x00\x00\x00\x00\x00\x00'
p293
tp294
Rp295
(dp296
g12
g44
sg13
F0.0
sg14
F55921.0
sg15
I01
sg16
F1736055.0
sg17
S'andrew.fastow@enron.com'
p297
sg19
g46
sg20
F-1386055.0
sg21
S'FASTOW ANDREW S'
p298
sg23
F0.0
sg24
g48
sg25
F0.0
sg26
g49
sg27
F277464.0
sg28
F0.5362852674599013
sg29
F0.0
sg30
F0.1817998806146489
sg31
g50
sg32
F1300000.0
sg33
F1794412.0
sg34
g51
sg35
F1794412.0
sg36
F440698.0
sg37
F2424083.0
sg38
g52
sg39
F0.0
ssg1
(g5
S',\x00\x00\x00\x00\x00\x00\x00'
p299
tp300
Rp301
(dp302
g12
F936.0
sg13
F0.0
sg14
F23870.0
sg15
I00
sg16
F556416.0
sg17
S'jay.fitzgerald@enron.com'
p303
sg19
F1.0
sg20
F0.0
sg21
S'FITZGERALD JAY L'
p304
sg23
F0.0
sg24
F723.0
sg25
F0.0
sg26
F16.0
sg27
F285414.0
sg28
F0.24737482303865338
sg29
F0.0
sg30
F0.14076122180545456
sg31
F0.0010683760683760685
sg32
F350000.0
sg33
F1621236.0
sg34
F8.0
sg35
F956775.0
sg36
F199157.0
sg37
F1414857.0
sg38
F0.5
sg39
F664461.0
ssg1
(g5
S'-\x00\x00\x00\x00\x00\x00\x00'
p305
tp306
Rp307
(dp308
g12
F517.0
sg13
F0.0
sg14
F0.0
sg15
I00
sg16
F0.0
sg17
S'kulvinder.fowler@enron.com'
p309
sg19
F0.0
sg20
F0.0
sg21
S'FOWLER PEGGY'
p310
sg23
F0.0
sg24
F10.0
sg25
F0.0
sg26
F36.0
sg27
F0.0
sg28
g180
sg29
F0.0
sg30
g181
sg31
F0.0
sg32
F0.0
sg33
F1884748.0
sg34
F0.0
sg35
F560170.0
sg36
F0.0
sg37
F0.0
sg38
F0.0
sg39
F1324578.0
ssg1
(g5
S'.\x00\x00\x00\x00\x00\x00\x00'
p311
tp312
Rp313
(dp314
g12
F57.0
sg13
F181755.0
sg14
F0.0
sg15
I00
sg16
F0.0
sg17
S'tracy.foy@enron.com'
p315
sg19
F0.0
sg20
F0.0
sg21
S'FOY JOE'
p316
sg23
F0.0
sg24
F2.0
sg25
F0.0
sg26
F13.0
sg27
F0.0
sg28
F0.0
sg29
F0.0
sg30
F0.0
sg31
F0.0
sg32
F0.0
sg33
F343434.0
sg34
F0.0
sg35
F0.0
sg36
F0.0
sg37
F181755.0
sg38
F0.0
sg39
F343434.0
ssg1
(g5
S'/\x00\x00\x00\x00\x00\x00\x00'
p317
tp318
Rp319
(dp320
g12
F3275.0
sg13
F6426990.0
sg14
F86987.0
sg15
I00
sg16
F1617011.0
sg17
S'mark.frevert@enron.com'
p321
sg19
F242.0
sg20
F-3367011.0
sg21
S'FREVERT MARK A'
p322
sg23
F0.0
sg24
F2979.0
sg25
F2000000.0
sg26
F21.0
sg27
F7427621.0
sg28
F0.1159250266482655
sg29
F0.0
sg30
F0.06149428518599881
sg31
F0.07389312977099237
sg32
F2000000.0
sg33
F14622185.0
sg34
F6.0
sg35
F4188667.0
sg36
F1060932.0
sg37
F17252530.0
sg38
F0.2857142857142857
sg39
F10433518.0
ssg1
(g5
S'0\x00\x00\x00\x00\x00\x00\x00'
p323
tp324
Rp325
(dp326
g12
g44
sg13
F50591.0
sg14
F0.0
sg15
I00
sg16
F0.0
sg17
g45
sg19
g46
sg20
F0.0
sg21
S'FUGH JOHN L'
p327
sg23
F0.0
sg24
g48
sg25
F0.0
sg26
g49
sg27
F0.0
sg28
F0.0
sg29
F0.0
sg30
F0.0
sg31
g50
sg32
F0.0
sg33
F176378.0
sg34
g51
sg35
F0.0
sg36
F0.0
sg37
F50591.0
sg38
g52
sg39
F176378.0
ssg1
(g5
S'1\x00\x00\x00\x00\x00\x00\x00'
p328
tp329
Rp330
(dp331
g12
g44
sg13
F73122.0
sg14
F50080.0
sg15
I00
sg16
F0.0
sg17
g45
sg19
g46
sg20
F-1042.0
sg21
S'GAHN ROBERT S'
p332
sg23
F0.0
sg24
g48
sg25
F0.0
sg26
g49
sg27
F76547.0
sg28
F0.5661542219779365
sg29
F0.0
sg30
F0.21320363985631563
sg31
g50
sg32
F509870.0
sg33
F318607.0
sg34
g51
sg35
F235370.0
sg36
F192008.0
sg37
F900585.0
sg38
g52
sg39
F83237.0
ssg1
(g5
S'2\x00\x00\x00\x00\x00\x00\x00'
p333
tp334
Rp335
(dp336
g12
F209.0
sg13
F0.0
sg14
F48405.0
sg15
I00
sg16
F375304.0
sg17
S'kevin.garland@enron.com'
p337
sg19
F10.0
sg20
F0.0
sg21
S'GARLAND C KEVIN'
p338
sg23
F0.0
sg24
F178.0
sg25
F0.0
sg26
F44.0
sg27
F60814.0
sg28
F0.5426216541789208
sg29
F0.0
sg30
F0.14806932023551056
sg31
F0.04784688995215311
sg32
F850000.0
sg33
F896153.0
sg34
F27.0
sg35
F259907.0
sg36
F231946.0
sg37
F1566469.0
sg38
F0.6136363636363636
sg39
F636246.0
ssg1
(g5
S'3\x00\x00\x00\x00\x00\x00\x00'
p339
tp340
Rp341
(dp342
g12
g44
sg13
F0.0
sg14
F0.0
sg15
I00
sg16
F0.0
sg17
g45
sg19
g46
sg20
F0.0
sg21
S'GATHMANN WILLIAM D'
p343
sg23
F-72419.0
sg24
g48
sg25
F0.0
sg26
g49
sg27
F0.0
sg28
g180
sg29
F0.0
sg30
g181
sg31
g50
sg32
F0.0
sg33
F1945360.0
sg34
g51
sg35
F264013.0
sg36
F0.0
sg37
F0.0
sg38
g52
sg39
F1753766.0
ssg1
(g5
S'4\x00\x00\x00\x00\x00\x00\x00'
p344
tp345
Rp346
(dp347
g12
F169.0
sg13
F504610.0
sg14
F0.0
sg15
I00
sg16
F461912.0
sg17
S'dana.gibbs@enron.com'
p348
sg19
F0.0
sg20
F0.0
sg21
S'GIBBS DANA R'
p349
sg23
F0.0
sg24
F23.0
sg25
F0.0
sg26
F12.0
sg27
F0.0
sg28
F0.0
sg29
F0.0
sg30
F0.0
sg31
F0.0
sg32
F0.0
sg33
F2218275.0
sg34
F0.0
sg35
F0.0
sg36
F0.0
sg37
F966522.0
sg38
F0.0
sg39
F2218275.0
ssg1
(g5
S'5\x00\x00\x00\x00\x00\x00\x00'
p350
tp351
Rp352
(dp353
g12
g44
sg13
F0.0
sg14
F0.0
sg15
I00
sg16
F0.0
sg17
g45
sg19
g46
sg20
F0.0
sg21
S'GILLIS JOHN'
p354
sg23
F0.0
sg24
g48
sg25
F0.0
sg26
g49
sg27
F0.0
sg28
g180
sg29
F0.0
sg30
g181
sg31
g50
sg32
F0.0
sg33
F85641.0
sg34
g51
sg35
F75838.0
sg36
F0.0
sg37
F0.0
sg38
g52
sg39
F9803.0
ssg1
(g5
S'6\x00\x00\x00\x00\x00\x00\x00'
p355
tp356
Rp357
(dp358
g12
F873.0
sg13
F0.0
sg14
F125978.0
sg15
I01
sg16
F71023.0
sg17
S'ben.glisan@enron.com'
p359
sg19
F52.0
sg20
F0.0
sg21
S'GLISAN JR BEN F'
p360
sg23
F0.0
sg24
F874.0
sg25
F0.0
sg26
F16.0
sg27
F200308.0
sg28
F0.4715928204709012
sg29
F0.0
sg30
F0.21612705968164342
sg31
F0.05956471935853379
sg32
F600000.0
sg33
F778546.0
sg34
F6.0
sg35
F393818.0
sg36
F274975.0
sg37
F1272284.0
sg38
F0.375
sg39
F384728.0
ssg1
(g5
S'7\x00\x00\x00\x00\x00\x00\x00'
p361
tp362
Rp363
(dp364
g12
g44
sg13
F0.0
sg14
F0.0
sg15
I00
sg16
F304805.0
sg17
S'joe.gold@enron.com'
p365
sg19
g46
sg20
F0.0
sg21
S'GOLD JOSEPH'
p366
sg23
F0.0
sg24
g48
sg25
F0.0
sg26
g49
sg27
F819288.0
sg28
F0.34932903208377564
sg29
F0.0
sg30
F0.12709987503336093
sg31
g50
sg32
F750000.0
sg33
F877611.0
sg34
g51
sg35
F441096.0
sg36
F272880.0
sg37
F2146973.0
sg38
g52
sg39
F436515.0
ssg1
(g5
S'8\x00\x00\x00\x00\x00\x00\x00'
p367
tp368
Rp369
(dp370
g12
g44
sg13
F0.0
sg14
F0.0
sg15
I00
sg16
F0.0
sg17
g45
sg19
g46
sg20
F0.0
sg21
S'GRAMM WENDY L'
p371
sg23
F0.0
sg24
g48
sg25
F0.0
sg26
g49
sg27
F0.0
sg28
F0.0
sg29
F119292.0
sg30
F0.0
sg31
g50
sg32
F0.0
sg33
F0.0
sg34
g51
sg35
F0.0
sg36
F0.0
sg37
F119292.0
sg38
g52
sg39
F0.0
ssg1
(g5
S'9\x00\x00\x00\x00\x00\x00\x00'
p372
tp373
Rp374
(dp375
g12
g44
sg13
F93585.0
sg14
F0.0
sg15
I00
sg16
F365625.0
sg17
g45
sg19
g46
sg20
F0.0
sg21
S'GRAY RODNEY'
p376
sg23
F0.0
sg24
g48
sg25
F0.0
sg26
g49
sg27
F680833.0
sg28
F0.0
sg29
F0.0
sg30
F0.005768938951282772
sg31
g50
sg32
F0.0
sg33
F0.0
sg34
g51
sg35
F0.0
sg36
F6615.0
sg37
F1146658.0
sg38
g52
sg39
F0.0
ssg1
(g5
S':\x00\x00\x00\x00\x00\x00\x00'
p377
tp378
Rp379
(dp380
g12
F4009.0
sg13
F2157527.0
sg14
F76169.0
sg15
I00
sg16
F983346.0
sg17
S'mark.haedicke@enron.com'
p381
sg19
F180.0
sg20
F-934484.0
sg21
S'HAEDICKE MARK E'
p382
sg23
F-329825.0
sg24
F1847.0
sg25
F0.0
sg26
F1941.0
sg27
F52382.0
sg28
F0.29799964499172726
sg29
F0.0
sg30
F0.09694705841959127
sg31
F0.04489897730107259
sg32
F1150000.0
sg33
F803094.0
sg34
F61.0
sg35
F524169.0
sg36
F374125.0
sg37
F3859065.0
sg38
F0.03142709943328181
sg39
F608750.0
ssg1
(g5
S';\x00\x00\x00\x00\x00\x00\x00'
p383
tp384
Rp385
(dp386
g12
F1045.0
sg13
F0.0
sg14
F34039.0
sg15
I01
sg16
F1617011.0
sg17
S'kevin.hannon@enron.com'
p387
sg19
F32.0
sg20
F-3117011.0
sg21
S'HANNON KEVIN P'
p388
sg23
F0.0
sg24
F1035.0
sg25
F0.0
sg26
F32.0
sg27
F11350.0
sg28
F5.196028848352166
sg29
F0.0
sg30
F0.8427716310680957
sg31
F0.03062200956937799
sg32
F1500000.0
sg33
F6391065.0
sg34
F21.0
sg35
F853064.0
sg36
F243293.0
sg37
F288682.0
sg38
F0.65625
sg39
F5538001.0
ssg1
(g5
S'<\x00\x00\x00\x00\x00\x00\x00'
p389
tp390
Rp391
(dp392
g12
F573.0
sg13
F0.0
sg14
F475.0
sg15
I00
sg16
F0.0
sg17
S'david.haug@enron.com'
p393
sg19
F4.0
sg20
F0.0
sg21
S'HAUG DAVID L'
p394
sg23
F0.0
sg24
F471.0
sg25
F0.0
sg26
F19.0
sg27
F0.0
sg28
F0.0
sg29
F0.0
sg30
F0.0
sg31
F0.006980802792321117
sg32
F0.0
sg33
F2217299.0
sg34
F7.0
sg35
F2217299.0
sg36
F0.0
sg37
F475.0
sg38
F0.3684210526315789
sg39
F0.0
ssg1
(g5
S'=\x00\x00\x00\x00\x00\x00\x00'
p395
tp396
Rp397
(dp398
g12
F504.0
sg13
F7961.0
sg14
F0.0
sg15
I00
sg16
F0.0
sg17
S'robert.hayes@enron.com'
p399
sg19
F16.0
sg20
F0.0
sg21
S'HAYES ROBERT E'
p400
sg23
F0.0
sg24
F50.0
sg25
F0.0
sg26
F12.0
sg27
F0.0
sg28
F0.0
sg29
F0.0
sg30
F0.0
sg31
F0.031746031746031744
sg32
F0.0
sg33
F151418.0
sg34
F0.0
sg35
F151418.0
sg36
F0.0
sg37
F7961.0
sg38
F0.0
sg39
F0.0
ssg1
(g5
S'>\x00\x00\x00\x00\x00\x00\x00'
p401
tp402
Rp403
(dp404
g12
F2649.0
sg13
F0.0
sg14
F0.0
sg15
I00
sg16
F0.0
sg17
S'rod.hayslett@enron.com'
p405
sg19
F35.0
sg20
F0.0
sg21
S'HAYSLETT RODERICK J'
p406
sg23
F0.0
sg24
F571.0
sg25
F0.0
sg26
F1061.0
sg27
F0.0
sg28
g180
sg29
F0.0
sg30
g181
sg31
F0.01321253303133258
sg32
F0.0
sg33
F346663.0
sg34
F38.0
sg35
F346663.0
sg36
F0.0
sg37
F0.0
sg38
F0.03581526861451461
sg39
F0.0
ssg1
(g5
S'?\x00\x00\x00\x00\x00\x00\x00'
p407
tp408
Rp409
(dp410
g12
g44
sg13
F0.0
sg14
F48357.0
sg15
I00
sg16
F150000.0
sg17
S'robert.hermann@enron.com'
p411
sg19
g46
sg20
F-280000.0
sg21
S'HERMANN ROBERT J'
p412
sg23
F0.0
sg24
g48
sg25
F0.0
sg26
g49
sg27
F416441.0
sg28
F0.5395152532523135
sg29
F0.0
sg30
F0.20244384995001777
sg31
g50
sg32
F700000.0
sg33
F668132.0
sg34
g51
sg35
F480632.0
sg36
F262663.0
sg37
F1297461.0
sg38
g52
sg39
F187500.0
ssg1
(g5
S'@\x00\x00\x00\x00\x00\x00\x00'
p413
tp414
Rp415
(dp416
g12
F1320.0
sg13
F0.0
sg14
F98849.0
sg15
I00
sg16
F69223.0
sg17
S'gary.hickerson@enron.com'
p417
sg19
F40.0
sg20
F0.0
sg21
S'HICKERSON GARY J'
p418
sg23
F0.0
sg24
F900.0
sg25
F0.0
sg26
F27.0
sg27
F1936.0
sg28
F0.8166025873812804
sg29
F0.0
sg30
F0.10173331104488624
sg31
F0.030303030303030304
sg32
F1700000.0
sg33
F441096.0
sg34
F1.0
sg35
F441096.0
sg36
F211788.0
sg37
F2081796.0
sg38
F0.037037037037037035
sg39
F0.0
ssg1
(g5
S'A\x00\x00\x00\x00\x00\x00\x00'
p419
tp420
Rp421
(dp422
g12
g44
sg13
F10259.0
sg14
F77978.0
sg15
I01
sg16
F0.0
sg17
S'joe.hirko@enron.com'
p423
sg19
g46
sg20
F0.0
sg21
S'HIRKO JOSEPH'
p424
sg23
F0.0
sg24
g48
sg25
F0.0
sg26
g49
sg27
F2856.0
sg28
F0.0
sg29
F0.0
sg30
F0.0
sg31
g50
sg32
F0.0
sg33
F30766064.0
sg34
g51
sg35
F0.0
sg36
F0.0
sg37
F91093.0
sg38
g52
sg39
F30766064.0
ssg1
(g5
S'B\x00\x00\x00\x00\x00\x00\x00'
p425
tp426
Rp427
(dp428
g12
F2350.0
sg13
F3131860.0
sg14
F0.0
sg15
I00
sg16
F0.0
sg17
S'stanley.horton@enron.com'
p429
sg19
F44.0
sg20
F0.0
sg21
S'HORTON STANLEY C'
p430
sg23
F0.0
sg24
F1074.0
sg25
F0.0
sg26
F1073.0
sg27
F0.0
sg28
F0.0
sg29
F0.0
sg30
F0.0
sg31
F0.01872340425531915
sg32
F0.0
sg33
F7256648.0
sg34
F15.0
sg35
F2046079.0
sg36
F0.0
sg37
F3131860.0
sg38
F0.013979496738117428
sg39
F5210569.0
ssg1
(g5
S'C\x00\x00\x00\x00\x00\x00\x00'
p431
tp432
Rp433
(dp434
g12
F719.0
sg13
F0.0
sg14
F0.0
sg15
I00
sg16
F0.0
sg17
S'james.hughes@enron.com'
p435
sg19
F35.0
sg20
F0.0
sg21
S'HUGHES JAMES A'
p436
sg23
F0.0
sg24
F589.0
sg25
F0.0
sg26
F34.0
sg27
F0.0
sg28
g180
sg29
F0.0
sg30
g181
sg31
F0.048678720445062586
sg32
F0.0
sg33
F1118394.0
sg34
F5.0
sg35
F363428.0
sg36
F0.0
sg37
F0.0
sg38
F0.14705882352941177
sg39
F754966.0
ssg1
(g5
S'D\x00\x00\x00\x00\x00\x00\x00'
p437
tp438
Rp439
(dp440
g12
F128.0
sg13
F2964506.0
sg14
F4994.0
sg15
I00
sg16
F0.0
sg17
S'gene.humphrey@enron.com'
p441
sg19
F10.0
sg20
F0.0
sg21
S'HUMPHREY GENE E'
p442
sg23
F0.0
sg24
F119.0
sg25
F0.0
sg26
F17.0
sg27
F0.0
sg28
F0.0
sg29
F0.0
sg30
F0.04216598542556925
sg31
F0.078125
sg32
F0.0
sg33
F2282768.0
sg34
F17.0
sg35
F0.0
sg36
F130724.0
sg37
F3100224.0
sg38
F1.0
sg39
F2282768.0
ssg1
(g5
S'E\x00\x00\x00\x00\x00\x00\x00'
p443
tp444
Rp445
(dp446
g12
F496.0
sg13
F0.0
sg14
F28093.0
sg15
I00
sg16
F312500.0
sg17
S'larry.izzo@enron.com'
p447
sg19
F28.0
sg20
F0.0
sg21
S'IZZO LAWRENCE L'
p448
sg23
F0.0
sg24
F437.0
sg25
F0.0
sg26
F19.0
sg27
F1553729.0
sg28
F0.0
sg29
F0.0
sg30
F0.043076466107225916
sg31
F0.056451612903225805
sg32
F0.0
sg33
F5819980.0
sg34
F5.0
sg35
F3654808.0
sg36
F85274.0
sg37
F1979596.0
sg38
F0.2631578947368421
sg39
F2165172.0
ssg1
(g5
S'F\x00\x00\x00\x00\x00\x00\x00'
p449
tp450
Rp451
(dp452
g12
F258.0
sg13
F0.0
sg14
F10181.0
sg15
I00
sg16
F0.0
sg17
S'charlene.jackson@enron.com'
p453
sg19
F25.0
sg20
F0.0
sg21
S'JACKSON CHARLENE R'
p454
sg23
F0.0
sg24
F117.0
sg25
F0.0
sg26
F56.0
sg27
F2435.0
sg28
F0.453577273238578
sg29
F0.0
sg30
F0.5235334032447104
sg31
F0.09689922480620156
sg32
F250000.0
sg33
F725735.0
sg34
F19.0
sg35
F540672.0
sg36
F288558.0
sg37
F551174.0
sg38
F0.3392857142857143
sg39
F185063.0
ssg1
(g5
S'G\x00\x00\x00\x00\x00\x00\x00'
p455
tp456
Rp457
(dp458
g12
g44
sg13
F0.0
sg14
F0.0
sg15
I00
sg16
F0.0
sg17
g45
sg19
g46
sg20
F-25000.0
sg21
S'JAEDICKE ROBERT'
p459
sg23
F-44093.0
sg24
g48
sg25
F0.0
sg26
g49
sg27
F0.0
sg28
F0.0
sg29
F108750.0
sg30
F0.0
sg31
g50
sg32
F0.0
sg33
F431750.0
sg34
g51
sg35
F44093.0
sg36
F0.0
sg37
F83750.0
sg38
g52
sg39
F431750.0
ssg1
(g5
S'H\x00\x00\x00\x00\x00\x00\x00'
p460
tp461
Rp462
(dp463
g12
F4607.0
sg13
F0.0
sg14
F83585.0
sg15
I00
sg16
F323466.0
sg17
S'vince.kaminski@enron.com'
p464
sg19
F41.0
sg20
F0.0
sg21
S'KAMINSKI WINCENTY J'
p465
sg23
F0.0
sg24
F583.0
sg25
F0.0
sg26
F14368.0
sg27
F4669.0
sg28
F0.368045887961311
sg29
F0.0
sg30
F0.2531244795601116
sg31
F0.008899500759713479
sg32
F400000.0
sg33
F976037.0
sg34
F171.0
sg35
F126027.0
sg36
F275101.0
sg37
F1086821.0
sg38
F0.011901447661469933
sg39
F850010.0
ssg1
(g5
S'I\x00\x00\x00\x00\x00\x00\x00'
p466
tp467
Rp468
(dp469
g12
F12754.0
sg13
F0.0
sg14
F41953.0
sg15
I00
sg16
F300000.0
sg17
S'steven.kean@enron.com'
p470
sg19
F140.0
sg20
F0.0
sg21
S'KEAN STEVEN J'
p471
sg23
F0.0
sg24
F3639.0
sg25
F0.0
sg26
F6759.0
sg27
F1231.0
sg28
F0.5722388616566773
sg29
F0.0
sg30
F0.23137791684453757
sg31
F0.010976948408342482
sg32
F1000000.0
sg33
F6153642.0
sg34
F387.0
sg35
F4131594.0
sg36
F404338.0
sg37
F1747522.0
sg38
F0.05725699067909454
sg39
F2022048.0
ssg1
(g5
S'J\x00\x00\x00\x00\x00\x00\x00'
p472
tp473
Rp474
(dp475
g12
g44
sg13
F0.0
sg14
F116335.0
sg15
I00
sg16
F0.0
sg17
S'joe.kishkill@enron.com'
p476
sg19
g46
sg20
F-51042.0
sg21
S'KISHKILL JOSEPH G'
p477
sg23
F0.0
sg24
g48
sg25
F0.0
sg26
g49
sg27
F465357.0
sg28
F0.0
sg29
F0.0
sg30
F0.2471939122934447
sg31
g50
sg32
F0.0
sg33
F1034346.0
sg34
g51
sg35
F1034346.0
sg36
F174246.0
sg37
F704896.0
sg38
g52
sg39
F0.0
ssg1
(g5
S'K\x00\x00\x00\x00\x00\x00\x00'
p478
tp479
Rp480
(dp481
g12
F8305.0
sg13
F0.0
sg14
F5774.0
sg15
I00
sg16
F0.0
sg17
S'louise.kitchen@enron.com'
p482
sg19
F251.0
sg20
F0.0
sg21
S'KITCHEN LOUISE'
p483
sg23
F0.0
sg24
F3669.0
sg25
F0.0
sg26
F1728.0
sg27
F93925.0
sg28
F0.8930780973748977
sg29
F0.0
sg30
F0.07819964674439903
sg31
F0.030222757375075255
sg32
F3100000.0
sg33
F547143.0
sg34
F194.0
sg35
F466101.0
sg36
F271442.0
sg37
F3471141.0
sg38
F0.11226851851851852
sg39
F81042.0
ssg1
(g5
S'L\x00\x00\x00\x00\x00\x00\x00'
p484
tp485
Rp486
(dp487
g12
F2374.0
sg13
F0.0
sg14
F127017.0
sg15
I01
sg16
F300000.0
sg17
S'mark.koenig@enron.com'
p488
sg19
F53.0
sg20
F0.0
sg21
S'KOENIG MARK E'
p489
sg23
F0.0
sg24
F2271.0
sg25
F0.0
sg26
F61.0
sg27
F150458.0
sg28
F0.44096682606567505
sg29
F0.0
sg30
F0.19525129124535962
sg31
F0.02232518955349621
sg32
F700000.0
sg33
F1920055.0
sg34
F15.0
sg35
F1248318.0
sg36
F309946.0
sg37
F1587421.0
sg38
F0.2459016393442623
sg39
F671737.0
ssg1
(g5
S'M\x00\x00\x00\x00\x00\x00\x00'
p490
tp491
Rp492
(dp493
g12
g44
sg13
F0.0
sg14
F118134.0
sg15
I01
sg16
F602671.0
sg17
S'michael.kopper@enron.com'
p494
sg19
g46
sg20
F0.0
sg21
S'KOPPER MICHAEL J'
p495
sg23
F0.0
sg24
g48
sg25
F0.0
sg26
g49
sg27
F907502.0
sg28
F0.30158952760524343
sg29
F0.0
sg30
F0.08456004873686766
sg31
g50
sg32
F800000.0
sg33
F985032.0
sg34
g51
sg35
F985032.0
sg36
F224305.0
sg37
F2652612.0
sg38
g52
sg39
F0.0
ssg1
(g5
S'N\x00\x00\x00\x00\x00\x00\x00'
p496
tp497
Rp498
(dp499
g12
F7259.0
sg13
F0.0
sg14
F49537.0
sg15
I00
sg16
F2035380.0
sg17
S'john.lavorato@enron.com'
p500
sg19
F528.0
sg20
F0.0
sg21
S'LAVORATO JOHN J'
p501
sg23
F0.0
sg24
F3962.0
sg25
F0.0
sg26
F2585.0
sg27
F1552.0
sg28
F0.767330372269371
sg29
F0.0
sg30
F0.03254324841831629
sg31
F0.07273729163796666
sg32
F8000000.0
sg33
F5167144.0
sg34
F411.0
sg35
F1008149.0
sg36
F339288.0
sg37
F10425757.0
sg38
F0.15899419729206962
sg39
F4158995.0
ssg1
(g5
S'O\x00\x00\x00\x00\x00\x00\x00'
p502
tp503
Rp504
(dp505
g12
F4273.0
sg13
F202911.0
sg14
F99832.0
sg15
I01
sg16
F3600000.0
sg17
S'kenneth.lay@enron.com'
p506
sg19
F123.0
sg20
F-300000.0
sg21
S'LAY KENNETH L'
p507
sg23
F0.0
sg24
F2411.0
sg25
F81525000.0
sg26
F36.0
sg27
F10359729.0
sg28
F0.06759380061719514
sg29
F0.0
sg30
F0.010354607410233042
sg31
F0.028785396676807865
sg32
F7000000.0
sg33
F49110078.0
sg34
F16.0
sg35
F14761694.0
sg36
F1072321.0
sg37
F103559793.0
sg38
F0.4444444444444444
sg39
F34348384.0
ssg1
(g5
S'P\x00\x00\x00\x00\x00\x00\x00'
p508
tp509
Rp510
(dp511
g12
F2822.0
sg13
F0.0
sg14
F0.0
sg15
I00
sg16
F1387399.0
sg17
S'dan.leff@enron.com'
p512
sg19
F67.0
sg20
F0.0
sg21
S'LEFF DANIEL P'
p513
sg23
F0.0
sg24
F2672.0
sg25
F0.0
sg26
F63.0
sg27
F3083.0
sg28
F0.3753432514034084
sg29
F0.0
sg30
F0.10274871369867744
sg31
F0.02374202693125443
sg32
F1000000.0
sg33
F360528.0
sg34
F14.0
sg35
F360528.0
sg36
F273746.0
sg37
F2664228.0
sg38
F0.2222222222222222
sg39
F0.0
ssg1
(g5
S'Q\x00\x00\x00\x00\x00\x00\x00'
p514
tp515
Rp516
(dp517
g12
g44
sg13
F0.0
sg14
F0.0
sg15
I00
sg16
F0.0
sg17
g45
sg19
g46
sg20
F-25000.0
sg21
S'LEMAISTRE CHARLES'
p518
sg23
F0.0
sg24
g48
sg25
F0.0
sg26
g49
sg27
F0.0
sg28
F0.0
sg29
F112492.0
sg30
F0.0
sg31
g50
sg32
F0.0
sg33
F412878.0
sg34
g51
sg35
F0.0
sg36
F0.0
sg37
F87492.0
sg38
g52
sg39
F412878.0
ssg1
(g5
S'R\x00\x00\x00\x00\x00\x00\x00'
p519
tp520
Rp521
(dp522
g12
F952.0
sg13
F0.0
sg14
F0.0
sg15
I00
sg16
F0.0
sg17
S'richard.lewis@enron.com'
p523
sg19
F10.0
sg20
F0.0
sg21
S'LEWIS RICHARD'
p524
sg23
F0.0
sg24
F739.0
sg25
F0.0
sg26
F26.0
sg27
F0.0
sg28
g180
sg29
F0.0
sg30
g181
sg31
F0.01050420168067227
sg32
F0.0
sg33
F850477.0
sg34
F0.0
sg35
F0.0
sg36
F0.0
sg37
F0.0
sg38
F0.0
sg39
F850477.0
ssg1
(g5
S'S\x00\x00\x00\x00\x00\x00\x00'
p525
tp526
Rp527
(dp528
g12
g44
sg13
F204075.0
sg14
F57727.0
sg15
I00
sg16
F175000.0
sg17
S'tod.lindholm@enron.com'
p529
sg19
g46
sg20
F0.0
sg21
S'LINDHOLM TOD A'
p530
sg23
F0.0
sg24
g48
sg25
F0.0
sg26
g49
sg27
F2630.0
sg28
F0.22833943570475254
sg29
F0.0
sg30
F0.2699622897421934
sg31
g50
sg32
F200000.0
sg33
F3064208.0
sg34
g51
sg35
F514847.0
sg36
F236457.0
sg37
F875889.0
sg38
g52
sg39
F2549361.0
ssg1
(g5
S'T\x00\x00\x00\x00\x00\x00\x00'
p531
tp532
Rp533
(dp534
g12
g44
sg13
F0.0
sg14
F0.0
sg15
I00
sg16
F0.0
sg17
g45
sg19
g46
sg20
F0.0
sg21
S'LOCKHART EUGENE E'
p535
sg23
F0.0
sg24
g48
sg25
F0.0
sg26
g49
sg27
F0.0
sg28
g180
sg29
F0.0
sg30
g181
sg31
g50
sg32
F0.0
sg33
F0.0
sg34
g51
sg35
F0.0
sg36
F0.0
sg37
F0.0
sg38
g52
sg39
F0.0
ssg1
(g5
S'U\x00\x00\x00\x00\x00\x00\x00'
p536
tp537
Rp538
(dp539
g12
g44
sg13
F0.0
sg14
F0.0
sg15
I00
sg16
F0.0
sg17
g45
sg19
g46
sg20
F0.0
sg21
S'LOWRY CHARLES P'
p540
sg23
F-153686.0
sg24
g48
sg25
F0.0
sg26
g49
sg27
F0.0
sg28
g180
sg29
F0.0
sg30
g181
sg31
g50
sg32
F0.0
sg33
F372205.0
sg34
g51
sg35
F153686.0
sg36
F0.0
sg37
F0.0
sg38
g52
sg39
F372205.0
ssg1
(g5
S'V\x00\x00\x00\x00\x00\x00\x00'
p541
tp542
Rp543
(dp544
g12
F1522.0
sg13
F85430.0
sg14
F8211.0
sg15
I00
sg16
F5145434.0
sg17
S'a..martin@enron.com'
p545
sg19
F8.0
sg20
F0.0
sg21
S'MARTIN AMANDA K'
p546
sg23
F0.0
sg24
F477.0
sg25
F0.0
sg26
F230.0
sg27
F2818454.0
sg28
F0.0
sg29
F0.0
sg30
F0.04157087366076144
sg31
F0.005256241787122208
sg32
F0.0
sg33
F2070306.0
sg34
F0.0
sg35
F0.0
sg36
F349487.0
sg37
F8407016.0
sg38
F0.0
sg39
F2070306.0
ssg1
(g5
S'W\x00\x00\x00\x00\x00\x00\x00'
p547
tp548
Rp549
(dp550
g12
F1433.0
sg13
F0.0
sg14
F0.0
sg15
I00
sg16
F0.0
sg17
S'danny.mccarty@enron.com'
p551
sg19
F25.0
sg20
F0.0
sg21
S'MCCARTY DANNY J'
p552
sg23
F0.0
sg24
F508.0
sg25
F0.0
sg26
F215.0
sg27
F0.0
sg28
g180
sg29
F0.0
sg30
g181
sg31
F0.017445917655268667
sg32
F0.0
sg33
F758931.0
sg34
F2.0
sg35
F94556.0
sg36
F0.0
sg37
F0.0
sg38
F0.009302325581395349
sg39
F664375.0
ssg1
(g5
S'X\x00\x00\x00\x00\x00\x00\x00'
p553
tp554
Rp555
(dp556
g12
F1744.0
sg13
F0.0
sg14
F228763.0
sg15
I00
sg16
F0.0
sg17
S'george.mcclellan@enron.com'
p557
sg19
F52.0
sg20
F-125000.0
sg21
S'MCCLELLAN GEORGE'
p558
sg23
F0.0
sg24
F1469.0
sg25
F0.0
sg26
F49.0
sg27
F51587.0
sg28
F0.6824577274309334
sg29
F0.0
sg30
F0.1997424859508494
sg31
F0.02981651376146789
sg32
F900000.0
sg33
F947861.0
sg34
F0.0
sg35
F441096.0
sg36
F263413.0
sg37
F1318763.0
sg38
F0.0
sg39
F506765.0
ssg1
(g5
S'Y\x00\x00\x00\x00\x00\x00\x00'
p559
tp560
Rp561
(dp562
g12
F3329.0
sg13
F0.0
sg14
F81364.0
sg15
I00
sg16
F554422.0
sg17
S'mike.mcconnell@enron.com'
p563
sg19
F92.0
sg20
F0.0
sg21
S'MCCONNELL MICHAEL S'
p564
sg23
F0.0
sg24
F2189.0
sg25
F0.0
sg26
F2742.0
sg27
F540.0
sg28
F0.5234695178940917
sg29
F0.0
sg30
F0.17371478715729402
sg31
F0.02763592670471613
sg32
F1100000.0
sg33
F3101279.0
sg34
F194.0
sg35
F1478269.0
sg36
F365038.0
sg37
F2101364.0
sg38
F0.07075127644055434
sg39
F1623010.0
ssg1
(g5
S'Z\x00\x00\x00\x00\x00\x00\x00'
p565
tp566
Rp567
(dp568
g12
F894.0
sg13
F0.0
sg14
F0.0
sg15
I00
sg16
F0.0
sg17
S'rebecca.mcdonald@enron.com'
p569
sg19
F54.0
sg20
F0.0
sg21
S'MCDONALD REBECCA'
p570
sg23
F0.0
sg24
F720.0
sg25
F0.0
sg26
F13.0
sg27
F0.0
sg28
g180
sg29
F0.0
sg30
g181
sg31
F0.06040268456375839
sg32
F0.0
sg33
F1691366.0
sg34
F1.0
sg35
F934065.0
sg36
F0.0
sg37
F0.0
sg38
F0.07692307692307693
sg39
F757301.0
ssg1
(g5
S'[\x00\x00\x00\x00\x00\x00\x00'
p571
tp572
Rp573
(dp574
g12
F2355.0
sg13
F0.0
sg14
F137108.0
sg15
I00
sg16
F694862.0
sg17
S'jeffrey.mcmahon@enron.com'
p575
sg19
F58.0
sg20
F0.0
sg21
S'MCMAHON JEFFREY'
p576
sg23
F0.0
sg24
F2228.0
sg25
F0.0
sg26
F48.0
sg27
F297353.0
sg28
F0.6341817628350461
sg29
F0.0
sg30
F0.09035821756873738
sg31
F0.024628450106157114
sg32
F2600000.0
sg33
F1662855.0
sg34
F26.0
sg35
F558801.0
sg36
F370448.0
sg37
F4099771.0
sg38
F0.5416666666666666
sg39
F1104054.0
ssg1
(g5
S'\\\x00\x00\x00\x00\x00\x00\x00'
p577
tp578
Rp579
(dp580
g12
g44
sg13
F0.0
sg14
F148.0
sg15
I00
sg16
F0.0
sg17
g45
sg19
g46
sg20
F-103750.0
sg21
S'MENDELSOHN JOHN'
p581
sg23
F0.0
sg24
g48
sg25
F0.0
sg26
g49
sg27
F0.0
sg28
F0.0
sg29
F103750.0
sg30
F0.0
sg31
g50
sg32
F0.0
sg33
F0.0
sg34
g51
sg35
F0.0
sg36
F0.0
sg37
F148.0
sg38
g52
sg39
F0.0
ssg1
(g5
S']\x00\x00\x00\x00\x00\x00\x00'
p582
tp583
Rp584
(dp585
g12
F807.0
sg13
F0.0
sg14
F94299.0
sg15
I00
sg16
F0.0
sg17
S'mark.metts@enron.com'
p586
sg19
F38.0
sg20
F0.0
sg21
S'METTS MARK'
p587
sg23
F0.0
sg24
F702.0
sg25
F0.0
sg26
F29.0
sg27
F1740.0
sg28
F0.5650638004119315
sg29
F0.0
sg30
F0.34448926237513267
sg31
F0.04708798017348203
sg32
F600000.0
sg33
F585062.0
sg34
F1.0
sg35
F585062.0
sg36
F365788.0
sg37
F1061827.0
sg38
F0.034482758620689655
sg39
F0.0
ssg1
(g5
S'^\x00\x00\x00\x00\x00\x00\x00'
p588
tp589
Rp590
(dp591
g12
g44
sg13
F0.0
sg14
F2151.0
sg15
I00
sg16
F0.0
sg17
g45
sg19
g46
sg20
F-38346.0
sg21
S'MEYER JEROME J'
p592
sg23
F0.0
sg24
g48
sg25
F0.0
sg26
g49
sg27
F0.0
sg28
F0.0
sg29
F38346.0
sg30
F0.0
sg31
g50
sg32
F0.0
sg33
F0.0
sg34
g51
sg35
F0.0
sg36
F0.0
sg37
F2151.0
sg38
g52
sg39
F0.0
ssg1
(g5
S'_\x00\x00\x00\x00\x00\x00\x00'
p593
tp594
Rp595
(dp596
g12
F232.0
sg13
F1848227.0
sg14
F0.0
sg15
I00
sg16
F0.0
sg17
S'rockford.meyer@enron.com'
p597
sg19
F0.0
sg20
F0.0
sg21
S'MEYER ROCKFORD G'
p598
sg23
F0.0
sg24
F22.0
sg25
F0.0
sg26
F28.0
sg27
F0.0
sg28
F0.0
sg29
F0.0
sg30
F0.0
sg31
F0.0
sg32
F0.0
sg33
F955873.0
sg34
F0.0
sg35
F462384.0
sg36
F0.0
sg37
F1848227.0
sg38
F0.0
sg39
F493489.0
ssg1
(g5
S'`\x00\x00\x00\x00\x00\x00\x00'
p599
tp600
Rp601
(dp602
g12
F672.0
sg13
F0.0
sg14
F0.0
sg15
I00
sg16
F0.0
sg17
S'michael.moran@enron.com'
p603
sg19
F0.0
sg20
F0.0
sg21
S'MORAN MICHAEL P'
p604
sg23
F0.0
sg24
F127.0
sg25
F0.0
sg26
F19.0
sg27
F0.0
sg28
g180
sg29
F0.0
sg30
g181
sg31
F0.0
sg32
F0.0
sg33
F221141.0
sg34
F0.0
sg35
F161602.0
sg36
F0.0
sg37
F0.0
sg38
F0.0
sg39
F59539.0
ssg1
(g5
S'a\x00\x00\x00\x00\x00\x00\x00'
p605
tp606
Rp607
(dp608
g12
g44
sg13
F0.0
sg14
F35018.0
sg15
I00
sg16
F0.0
sg17
S'kristina.mordaunt@enron.com'
p609
sg19
g46
sg20
F0.0
sg21
S'MORDAUNT KRISTINA M'
p610
sg23
F0.0
sg24
g48
sg25
F0.0
sg26
g49
sg27
F1411.0
sg28
F0.5170861163173286
sg29
F0.0
sg30
F0.42495409866321304
sg31
g50
sg32
F325000.0
sg33
F208510.0
sg34
g51
sg35
F208510.0
sg36
F267093.0
sg37
F628522.0
sg38
g52
sg39
F0.0
ssg1
(g5
S'b\x00\x00\x00\x00\x00\x00\x00'
p611
tp612
Rp613
(dp614
g12
F136.0
sg13
F842924.0
sg14
F0.0
sg15
I00
sg16
F1725545.0
sg17
S's..muller@enron.com'
p615
sg19
F12.0
sg20
F-719000.0
sg21
S'MULLER MARK S'
p616
sg23
F0.0
sg24
F114.0
sg25
F0.0
sg26
F16.0
sg27
F947.0
sg28
F0.3435277804670104
sg29
F0.0
sg30
F0.07859103642331366
sg31
F0.08823529411764706
sg32
F1100000.0
sg33
F1416848.0
sg34
F0.0
sg35
F360528.0
sg36
F251654.0
sg37
F3202070.0
sg38
F0.0
sg39
F1056320.0
ssg1
(g5
S'c\x00\x00\x00\x00\x00\x00\x00'
p617
tp618
Rp619
(dp620
g12
F2192.0
sg13
F0.0
sg14
F57580.0
sg15
I00
sg16
F125000.0
sg17
S'julia.murray@enron.com'
p621
sg19
F11.0
sg20
F0.0
sg21
S'MURRAY JULIA H'
p622
sg23
F0.0
sg24
F395.0
sg25
F0.0
sg26
F45.0
sg27
F330.0
sg28
F0.4924931728133919
sg29
F0.0
sg30
F0.2823020115883644
sg31
F0.005018248175182482
sg32
F400000.0
sg33
F597461.0
sg34
F2.0
sg35
F196983.0
sg36
F229284.0
sg37
F812194.0
sg38
F0.044444444444444446
sg39
F400478.0
ssg1
(g5
S'd\x00\x00\x00\x00\x00\x00\x00'
p623
tp624
Rp625
(dp626
g12
g44
sg13
F774401.0
sg14
F0.0
sg15
I00
sg16
F0.0
sg17
g45
sg19
g46
sg20
F0.0
sg21
S'NOLES JAMES L'
p627
sg23
F-94556.0
sg24
g48
sg25
F0.0
sg26
g49
sg27
F0.0
sg28
F0.0
sg29
F0.0
sg30
F0.0
sg31
g50
sg32
F0.0
sg33
F368705.0
sg34
g51
sg35
F463261.0
sg36
F0.0
sg37
F774401.0
sg38
g52
sg39
F0.0
ssg1
(g5
S'e\x00\x00\x00\x00\x00\x00\x00'
p628
tp629
Rp630
(dp631
g12
F1184.0
sg13
F77716.0
sg14
F63791.0
sg15
I00
sg16
F100000.0
sg17
S'cindy.olson@enron.com'
p632
sg19
F20.0
sg20
F0.0
sg21
S'OLSON CINDY K'
p633
sg23
F0.0
sg24
F856.0
sg25
F0.0
sg26
F52.0
sg27
F972.0
sg28
F0.5675124114964394
sg29
F0.0
sg30
F0.2490077991339004
sg31
F0.016891891891891893
sg32
F750000.0
sg33
F2606763.0
sg34
F15.0
sg35
F969729.0
sg36
F329078.0
sg37
F1321557.0
sg38
F0.28846153846153844
sg39
F1637034.0
ssg1
(g5
S'f\x00\x00\x00\x00\x00\x00\x00'
p634
tp635
Rp636
(dp637
g12
g44
sg13
F0.0
sg14
F18834.0
sg15
I00
sg16
F135836.0
sg17
S'jere.overdyke@enron.com'
p638
sg19
g46
sg20
F0.0
sg21
S'OVERDYKE JR JERE C'
p639
sg23
F0.0
sg24
g48
sg25
F0.0
sg26
g49
sg27
F176.0
sg28
F0.0
sg29
F0.0
sg30
F0.38008783483527964
sg31
g50
sg32
F0.0
sg33
F7307594.0
sg34
g51
sg35
F2041016.0
sg36
F94941.0
sg37
F249787.0
sg38
g52
sg39
F5266578.0
ssg1
(g5
S'g\x00\x00\x00\x00\x00\x00\x00'
p640
tp641
Rp642
(dp643
g12
g44
sg13
F0.0
sg14
F32047.0
sg15
I00
sg16
F0.0
sg17
S'lou.pai@enron.com'
p644
sg19
g46
sg20
F0.0
sg21
S'PAI LOU L'
p645
sg23
F0.0
sg24
g48
sg25
F0.0
sg26
g49
sg27
F1829457.0
sg28
F0.3201656665224854
sg29
F0.0
sg30
F0.08384466458324195
sg31
g50
sg32
F1000000.0
sg33
F23817930.0
sg34
g51
sg35
F8453763.0
sg36
F261879.0
sg37
F3123383.0
sg38
g52
sg39
F15364167.0
ssg1
(g5
S'h\x00\x00\x00\x00\x00\x00\x00'
p646
tp647
Rp648
(dp649
g12
g44
sg13
F0.0
sg14
F27942.0
sg15
I00
sg16
F0.0
sg17
g45
sg19
g46
sg20
F-101250.0
sg21
S'PEREIRA PAULO V. FERRAZ'
p650
sg23
F0.0
sg24
g48
sg25
F0.0
sg26
g49
sg27
F0.0
sg28
F0.0
sg29
F101250.0
sg30
F0.0
sg31
g50
sg32
F0.0
sg33
F0.0
sg34
g51
sg35
F0.0
sg36
F0.0
sg37
F27942.0
sg38
g52
sg39
F0.0
ssg1
(g5
S'i\x00\x00\x00\x00\x00\x00\x00'
p651
tp652
Rp653
(dp654
g12
F898.0
sg13
F0.0
sg14
F31653.0
sg15
I00
sg16
F0.0
sg17
S'mark.pickering@enron.com'
p655
sg19
F7.0
sg20
F0.0
sg21
S'PICKERING MARK R'
p656
sg23
F0.0
sg24
F728.0
sg25
F400000.0
sg26
F67.0
sg27
F0.0
sg28
F0.21634251346732147
sg29
F0.0
sg30
F0.47237450331364617
sg31
F0.0077951002227171495
sg32
F300000.0
sg33
F28798.0
sg34
F0.0
sg35
F0.0
sg36
F655037.0
sg37
F1386690.0
sg38
F0.0
sg39
F28798.0
ssg1
(g5
S'j\x00\x00\x00\x00\x00\x00\x00'
p657
tp658
Rp659
(dp660
g12
F1238.0
sg13
F1130036.0
sg14
F43057.0
sg15
I00
sg16
F0.0
sg17
S'greg.piper@enron.com'
p661
sg19
F61.0
sg20
F-33333.0
sg21
S'PIPER GREGORY F'
p662
sg23
F-409554.0
sg24
F742.0
sg25
F0.0
sg26
F222.0
sg27
F778.0
sg28
F0.23019873632403695
sg29
F0.0
sg30
F0.11342524785210191
sg31
F0.049273021001615507
sg32
F400000.0
sg33
F880290.0
sg34
F48.0
sg35
F409554.0
sg36
F197091.0
sg37
F1737629.0
sg38
F0.21621621621621623
sg39
F880290.0
ssg1
(g5
S'k\x00\x00\x00\x00\x00\x00\x00'
p663
tp664
Rp665
(dp666
g12
F58.0
sg13
F0.0
sg14
F0.0
sg15
I00
sg16
F0.0
sg17
S'jim.piro@enron.com'
p667
sg19
F0.0
sg20
F0.0
sg21
S'PIRO JIM'
p668
sg23
F0.0
sg24
F3.0
sg25
F0.0
sg26
F16.0
sg27
F0.0
sg28
g180
sg29
F0.0
sg30
g181
sg31
F0.0
sg32
F0.0
sg33
F47304.0
sg34
F1.0
sg35
F47304.0
sg36
F0.0
sg37
F0.0
sg38
F0.0625
sg39
F0.0
ssg1
(g5
S'l\x00\x00\x00\x00\x00\x00\x00'
p669
tp670
Rp671
(dp672
g12
F653.0
sg13
F0.0
sg14
F0.0
sg15
I00
sg16
F0.0
sg17
S'ken.powers@enron.com'
p673
sg19
F0.0
sg20
F-17500.0
sg21
S'POWERS WILLIAM'
p674
sg23
F0.0
sg24
F12.0
sg25
F0.0
sg26
F26.0
sg27
F0.0
sg28
g180
sg29
F17500.0
sg30
g181
sg31
F0.0
sg32
F0.0
sg33
F0.0
sg34
F0.0
sg35
F0.0
sg36
F0.0
sg37
F0.0
sg38
F0.0
sg39
F0.0
ssg1
(g5
S'm\x00\x00\x00\x00\x00\x00\x00'
p675
tp676
Rp677
(dp678
g12
g44
sg13
F564348.0
sg14
F0.0
sg15
I00
sg16
F0.0
sg17
S'james.prentice@enron.com'
p679
sg19
g46
sg20
F0.0
sg21
S'PRENTICE JAMES'
p680
sg23
F0.0
sg24
g48
sg25
F0.0
sg26
g49
sg27
F0.0
sg28
F0.0
sg29
F0.0
sg30
F0.0
sg31
g50
sg32
F0.0
sg33
F1095040.0
sg34
g51
sg35
F208809.0
sg36
F0.0
sg37
F564348.0
sg38
g52
sg39
F886231.0
ssg1
(g5
S'n\x00\x00\x00\x00\x00\x00\x00'
p681
tp682
Rp683
(dp684
g12
F1671.0
sg13
F0.0
sg14
F14689.0
sg15
I00
sg16
F0.0
sg17
S'brian.redmond@enron.com'
p685
sg19
F204.0
sg20
F0.0
sg21
S'REDMOND BRIAN L'
p686
sg23
F0.0
sg24
F1063.0
sg25
F0.0
sg26
F221.0
sg27
F0.0
sg28
F0.0
sg29
F0.0
sg30
F0.8682943449685732
sg31
F0.12208258527827648
sg32
F0.0
sg33
F7890324.0
sg34
F49.0
sg35
F381285.0
sg36
F96840.0
sg37
F111529.0
sg38
F0.22171945701357465
sg39
F7509039.0
ssg1
(g5
S'o\x00\x00\x00\x00\x00\x00\x00'
p687
tp688
Rp689
(dp690
g12
g44
sg13
F51365.0
sg14
F8409.0
sg15
I00
sg16
F156250.0
sg17
g45
sg19
g46
sg20
F-200000.0
sg21
S'REYNOLDS LAWRENCE'
p691
sg23
F-140264.0
sg24
g48
sg25
F0.0
sg26
g49
sg27
F202052.0
sg28
F0.2535014893212498
sg29
F0.0
sg30
F0.1936726028265416
sg31
g50
sg32
F100000.0
sg33
F4221891.0
sg34
g51
sg35
F201483.0
sg36
F76399.0
sg37
F394475.0
sg38
g52
sg39
F4160672.0
ssg1
(g5
S'p\x00\x00\x00\x00\x00\x00\x00'
p692
tp693
Rp694
(dp695
g12
F905.0
sg13
F0.0
sg14
F46950.0
sg15
I01
sg16
F1617011.0
sg17
S'ken.rice@enron.com'
p696
sg19
F42.0
sg20
F-3504386.0
sg21
S'RICE KENNETH D'
p697
sg23
F0.0
sg24
F864.0
sg25
F0.0
sg26
F18.0
sg27
F174839.0
sg28
F3.465003465003465
sg29
F0.0
sg30
F0.8328601128601129
sg31
F0.04640883977900553
sg32
F1750000.0
sg33
F22542539.0
sg34
F4.0
sg35
F2748364.0
sg36
F420636.0
sg37
F505050.0
sg38
F0.2222222222222222
sg39
F19794175.0
ssg1
(g5
S'q\x00\x00\x00\x00\x00\x00\x00'
p698
tp699
Rp700
(dp701
g12
F1328.0
sg13
F214678.0
sg14
F33271.0
sg15
I01
sg16
F0.0
sg17
S'paula.rieker@enron.com'
p702
sg19
F35.0
sg20
F-100000.0
sg21
S'RIEKER PAULA H'
p703
sg23
F0.0
sg24
F1258.0
sg25
F0.0
sg26
F82.0
sg27
F1950.0
sg28
F0.6368847238649804
sg29
F0.0
sg30
F0.22673187153125285
sg31
F0.02635542168674699
sg32
F700000.0
sg33
F1918887.0
sg34
F48.0
sg35
F283649.0
sg36
F249201.0
sg37
F1099100.0
sg38
F0.5853658536585366
sg39
F1635238.0
ssg1
(g5
S'r\x00\x00\x00\x00\x00\x00\x00'
p704
tp705
Rp706
(dp707
g12
g44
sg13
F0.0
sg14
F0.0
sg15
I00
sg16
F0.0
sg17
g45
sg19
g46
sg20
F-121284.0
sg21
S'SAVAGE FRANK'
p708
sg23
F0.0
sg24
g48
sg25
F0.0
sg26
g49
sg27
F0.0
sg28
F0.0
sg29
F125034.0
sg30
F0.0
sg31
g50
sg32
F0.0
sg33
F0.0
sg34
g51
sg35
F0.0
sg36
F0.0
sg37
F3750.0
sg38
g52
sg39
F0.0
ssg1
(g5
S's\x00\x00\x00\x00\x00\x00\x00'
p709
tp710
Rp711
(dp712
g12
g44
sg13
F0.0
sg14
F0.0
sg15
I00
sg16
F0.0
sg17
S'matthew.scrimshaw@enron.com'
p713
sg19
g46
sg20
F0.0
sg21
S'SCRIMSHAW MATTHEW'
p714
sg23
F0.0
sg24
g48
sg25
F0.0
sg26
g49
sg27
F0.0
sg28
g180
sg29
F0.0
sg30
g181
sg31
g50
sg32
F0.0
sg33
F759557.0
sg34
g51
sg35
F0.0
sg36
F0.0
sg37
F0.0
sg38
g52
sg39
F759557.0
ssg1
(g5
S't\x00\x00\x00\x00\x00\x00\x00'
p715
tp716
Rp717
(dp718
g12
F3221.0
sg13
F0.0
sg14
F178979.0
sg15
I00
sg16
F554422.0
sg17
S'jeffrey.shankman@enron.com'
p719
sg19
F94.0
sg20
F0.0
sg21
S'SHANKMAN JEFFREY A'
p720
sg23
F0.0
sg24
F1730.0
sg25
F0.0
sg26
F2681.0
sg27
F1191.0
sg28
F0.6581757605714545
sg29
F0.0
sg30
F0.10007891527369252
sg31
F0.029183483390251473
sg32
F2000000.0
sg33
F2072035.0
sg34
F83.0
sg35
F630137.0
sg36
F304110.0
sg37
F3038702.0
sg38
F0.030958597538232
sg39
F1441898.0
ssg1
(g5
S'u\x00\x00\x00\x00\x00\x00\x00'
p721
tp722
Rp723
(dp724
g12
F15149.0
sg13
F0.0
sg14
F137767.0
sg15
I00
sg16
F0.0
sg17
S'richard.shapiro@enron.com'
p725
sg19
F74.0
sg20
F0.0
sg21
S'SHAPIRO RICHARD S'
p726
sg23
F0.0
sg24
F4527.0
sg25
F0.0
sg26
F1215.0
sg27
F705.0
sg28
F0.6146293123338137
sg29
F0.0
sg30
F0.25443384130082036
sg31
F0.0048848108786058485
sg32
F650000.0
sg33
F987001.0
sg34
F65.0
sg35
F379164.0
sg36
F269076.0
sg37
F1057548.0
sg38
F0.053497942386831275
sg39
F607837.0
ssg1
(g5
S'v\x00\x00\x00\x00\x00\x00\x00'
p727
tp728
Rp729
(dp730
g12
F3136.0
sg13
F187469.0
sg14
F116337.0
sg15
I00
sg16
F422158.0
sg17
S'vicki.sharp@enron.com'
p731
sg19
F24.0
sg20
F0.0
sg21
S'SHARP VICTORIA T'
p732
sg23
F0.0
sg24
F2477.0
sg25
F0.0
sg26
F136.0
sg27
F2401.0
sg28
F0.38058725882661143
sg29
F0.0
sg30
F0.15740200988131386
sg31
F0.007653061224489796
sg32
F600000.0
sg33
F494136.0
sg34
F6.0
sg35
F213063.0
sg36
F248146.0
sg37
F1576511.0
sg38
F0.04411764705882353
sg39
F281073.0
ssg1
(g5
S'w\x00\x00\x00\x00\x00\x00\x00'
p733
tp734
Rp735
(dp736
g12
F225.0
sg13
F0.0
sg14
F22884.0
sg15
I01
sg16
F0.0
sg17
S'rex.shelby@enron.com'
p737
sg19
F13.0
sg20
F-4167.0
sg21
S'SHELBY REX'
p738
sg23
F0.0
sg24
F91.0
sg25
F0.0
sg26
F39.0
sg27
F1573324.0
sg28
F0.09980612659908128
sg29
F0.0
sg30
F0.10571664541627888
sg31
F0.057777777777777775
sg32
F200000.0
sg33
F2493616.0
sg34
F14.0
sg35
F869220.0
sg36
F211844.0
sg37
F2003885.0
sg38
F0.358974358974359
sg39
F1624396.0
ssg1
(g5
S'x\x00\x00\x00\x00\x00\x00\x00'
p739
tp740
Rp741
(dp742
g12
F613.0
sg13
F0.0
sg14
F0.0
sg15
I00
sg16
F0.0
sg17
S'jeffrey.sherrick@enron.com'
p743
sg19
F39.0
sg20
F0.0
sg21
S'SHERRICK JEFFREY B'
p744
sg23
F0.0
sg24
F583.0
sg25
F0.0
sg26
F25.0
sg27
F0.0
sg28
g180
sg29
F0.0
sg30
g181
sg31
F0.0636215334420881
sg32
F0.0
sg33
F1832468.0
sg34
F18.0
sg35
F405999.0
sg36
F0.0
sg37
F0.0
sg38
F0.72
sg39
F1426469.0
ssg1
(g5
S'y\x00\x00\x00\x00\x00\x00\x00'
p745
tp746
Rp747
(dp748
g12
F3187.0
sg13
F0.0
sg14
F0.0
sg15
I00
sg16
F554422.0
sg17
S'john.sherriff@enron.com'
p749
sg19
F28.0
sg20
F0.0
sg21
S'SHERRIFF JOHN R'
p750
sg23
F0.0
sg24
F2103.0
sg25
F0.0
sg26
F92.0
sg27
F1852186.0
sg28
F0.34598979376240374
sg29
F0.0
sg30
F0.09890233584629565
sg31
F0.008785691873235017
sg32
F1500000.0
sg33
F3128982.0
sg34
F23.0
sg35
F1293424.0
sg36
F428780.0
sg37
F4335388.0
sg38
F0.25
sg39
F1835558.0
ssg1
(g5
S'z\x00\x00\x00\x00\x00\x00\x00'
p751
tp752
Rp753
(dp754
g12
F3627.0
sg13
F0.0
sg14
F29336.0
sg15
I01
sg16
F1920000.0
sg17
S'jeff.skilling@enron.com'
p755
sg19
F88.0
sg20
F0.0
sg21
S'SKILLING JEFFREY K'
p756
sg23
F0.0
sg24
F2042.0
sg25
F0.0
sg26
F108.0
sg27
F22122.0
sg28
F0.6449594804206426
sg29
F0.0
sg30
F0.12798506826665756
sg31
F0.0242624758753791
sg32
F5600000.0
sg33
F26093672.0
sg34
F30.0
sg35
F6843672.0
sg36
F1111258.0
sg37
F8682716.0
sg38
F0.2777777777777778
sg39
F19250000.0
ssg1
(g5
S'{\x00\x00\x00\x00\x00\x00\x00'
p757
tp758
Rp759
(dp760
g12
g44
sg13
F0.0
sg14
F16514.0
sg15
I00
sg16
F0.0
sg17
S'frank.stabler@enron.com'
p761
sg19
g46
sg20
F0.0
sg21
S'STABLER FRANK'
p762
sg23
F0.0
sg24
g48
sg25
F0.0
sg26
g49
sg27
F356071.0
sg28
F0.44960511183027946
sg29
F0.0
sg30
F0.21536264698715119
sg31
g50
sg32
F500000.0
sg33
F511734.0
sg34
g51
sg35
F511734.0
sg36
F239502.0
sg37
F1112087.0
sg38
g52
sg39
F0.0
ssg1
(g5
S'|\x00\x00\x00\x00\x00\x00\x00'
p763
tp764
Rp765
(dp766
g12
g44
sg13
F181993.0
sg14
F0.0
sg15
I00
sg16
F554422.0
sg17
g45
sg19
g46
sg20
F0.0
sg21
S'SULLIVAN-SHAKLOVITZ COLLEEN'
p767
sg23
F0.0
sg24
g48
sg25
F0.0
sg26
g49
sg27
F162.0
sg28
F0.10006444150032621
sg29
F0.0
sg30
F0.162883897229816
sg31
g50
sg32
F100000.0
sg33
F1362375.0
sg34
g51
sg35
F0.0
sg36
F162779.0
sg37
F999356.0
sg38
g52
sg39
F1362375.0
ssg1
(g5
S'}\x00\x00\x00\x00\x00\x00\x00'
p768
tp769
Rp770
(dp771
g12
F2647.0
sg13
F0.0
sg14
F0.0
sg15
I00
sg16
F476451.0
sg17
S'marty.sunde@enron.com'
p772
sg19
F37.0
sg20
F0.0
sg21
S'SUNDE MARTIN'
p773
sg23
F0.0
sg24
F2565.0
sg25
F0.0
sg26
F38.0
sg27
F111122.0
sg28
F0.4530571324460749
sg29
F0.0
sg30
F0.16665124115001434
sg31
F0.013978088401964487
sg32
F700000.0
sg33
F698920.0
sg34
F13.0
sg35
F698920.0
sg36
F257486.0
sg37
F1545059.0
sg38
F0.34210526315789475
sg39
F0.0
ssg1
(g5
S'~\x00\x00\x00\x00\x00\x00\x00'
p774
tp775
Rp776
(dp777
g12
F533.0
sg13
F227449.0
sg14
F0.0
sg15
I00
sg16
F0.0
sg17
S'mitchell.taylor@enron.com'
p778
sg19
F0.0
sg20
F0.0
sg21
S'TAYLOR MITCHELL S'
p779
sg23
F0.0
sg24
F300.0
sg25
F0.0
sg26
F29.0
sg27
F0.0
sg28
F0.5491171568910085
sg29
F0.0
sg30
F0.24272259607948654
sg31
F0.0
sg32
F600000.0
sg33
F3745048.0
sg34
F0.0
sg35
F563798.0
sg36
F265214.0
sg37
F1092663.0
sg38
F0.0
sg39
F3181250.0
ssg1
(g5
S'\x7f\x00\x00\x00\x00\x00\x00\x00'
p780
tp781
Rp782
(dp783
g12
g44
sg13
F0.0
sg14
F0.0
sg15
I00
sg16
F0.0
sg17
g45
sg19
g46
sg20
F0.0
sg21
S'THE TRAVEL AGENCY IN THE PARK'
p784
sg23
F0.0
sg24
g48
sg25
F0.0
sg26
g49
sg27
F362096.0
sg28
F0.0
sg29
F0.0
sg30
F0.0
sg31
g50
sg32
F0.0
sg33
F0.0
sg34
g51
sg35
F0.0
sg36
F0.0
sg37
F362096.0
sg38
g52
sg39
F0.0
ssg1
(g5
S'\x80\x00\x00\x00\x00\x00\x00\x00'
p785
tp786
Rp787
(dp788
g12
F266.0
sg13
F16586.0
sg14
F46145.0
sg15
I00
sg16
F200000.0
sg17
S'terence.thorn@enron.com'
p789
sg19
F0.0
sg20
F0.0
sg21
S'THORN TERENCE H'
p790
sg23
F0.0
sg24
F73.0
sg25
F0.0
sg26
F41.0
sg27
F426629.0
sg28
F0.0
sg29
F0.0
sg30
F0.24366917438419755
sg31
F0.0
sg32
F0.0
sg33
F4817796.0
sg34
F0.0
sg35
F365320.0
sg36
F222093.0
sg37
F911453.0
sg38
F0.0
sg39
F4452476.0
ssg1
(g5
S'\x81\x00\x00\x00\x00\x00\x00\x00'
p791
tp792
Rp793
(dp794
g12
F460.0
sg13
F0.0
sg14
F0.0
sg15
I00
sg16
F275000.0
sg17
S'elizabeth.tilney@enron.com'
p795
sg19
F10.0
sg20
F-575000.0
sg21
S'TILNEY ELIZABETH A'
p796
sg23
F0.0
sg24
F379.0
sg25
F0.0
sg26
F19.0
sg27
F152055.0
sg28
F0.7511398547295521
sg29
F0.0
sg30
F0.6192847646303266
sg31
F0.021739130434782608
sg32
F300000.0
sg33
F1168042.0
sg34
F11.0
sg35
F576792.0
sg36
F247338.0
sg37
F399393.0
sg38
F0.5789473684210527
sg39
F591250.0
ssg1
(g5
S'\x83\x00\x00\x00\x00\x00\x00\x00'
p797
tp798
Rp799
(dp800
g12
F111.0
sg13
F0.0
sg14
F53122.0
sg15
I00
sg16
F0.0
sg17
S'adam.umanoff@enron.com'
p801
sg19
F12.0
sg20
F0.0
sg21
S'UMANOFF ADAM S'
p802
sg23
F0.0
sg24
F41.0
sg25
F0.0
sg26
F18.0
sg27
F0.0
sg28
F0.6977242027809893
sg29
F0.0
sg30
F0.2552843485976075
sg31
F0.10810810810810811
sg32
F788750.0
sg33
F0.0
sg34
F0.0
sg35
F0.0
sg36
F288589.0
sg37
F1130461.0
sg38
F0.0
sg39
F0.0
ssg1
(g5
S'\x84\x00\x00\x00\x00\x00\x00\x00'
p803
tp804
Rp805
(dp806
g12
g44
sg13
F0.0
sg14
F228656.0
sg15
I00
sg16
F0.0
sg17
g45
sg19
g46
sg20
F-36666.0
sg21
S'URQUHART JOHN A'
p807
sg23
F0.0
sg24
g48
sg25
F0.0
sg26
g49
sg27
F0.0
sg28
F0.0
sg29
F36666.0
sg30
F0.0
sg31
g50
sg32
F0.0
sg33
F0.0
sg34
g51
sg35
F0.0
sg36
F0.0
sg37
F228656.0
sg38
g52
sg39
F0.0
ssg1
(g5
S'\x85\x00\x00\x00\x00\x00\x00\x00'
p808
tp809
Rp810
(dp811
g12
g44
sg13
F0.0
sg14
F103773.0
sg15
I00
sg16
F0.0
sg17
g45
sg19
g46
sg20
F0.0
sg21
S'WAKEHAM JOHN'
p812
sg23
F0.0
sg24
g48
sg25
F0.0
sg26
g49
sg27
F0.0
sg28
F0.0
sg29
F109298.0
sg30
F0.0
sg31
g50
sg32
F0.0
sg33
F0.0
sg34
g51
sg35
F0.0
sg36
F0.0
sg37
F213071.0
sg38
g52
sg39
F0.0
ssg1
(g5
S'\x86\x00\x00\x00\x00\x00\x00\x00'
p813
tp814
Rp815
(dp816
g12
F671.0
sg13
F0.0
sg14
F50936.0
sg15
I00
sg16
F540751.0
sg17
S'rob.walls@enron.com'
p817
sg19
F17.0
sg20
F0.0
sg21
S'WALLS JR ROBERT H'
p818
sg23
F0.0
sg24
F215.0
sg25
F0.0
sg26
F146.0
sg27
F2.0
sg28
F0.47254250102847484
sg29
F0.0
sg30
F0.1985184402761872
sg31
F0.02533532041728763
sg32
F850000.0
sg33
F5898997.0
sg34
F0.0
sg35
F1552453.0
sg36
F357091.0
sg37
F1798780.0
sg38
F0.0
sg39
F4346544.0
ssg1
(g5
S'\x87\x00\x00\x00\x00\x00\x00\x00'
p819
tp820
Rp821
(dp822
g12
g44
sg13
F53625.0
sg14
F33785.0
sg15
I00
sg16
F0.0
sg17
g45
sg19
g46
sg20
F0.0
sg21
S'WALTERS GARETH W'
p823
sg23
F0.0
sg24
g48
sg25
F0.0
sg26
g49
sg27
F0.0
sg28
F0.0
sg29
F0.0
sg30
F0.0
sg31
g50
sg32
F0.0
sg33
F1030329.0
sg34
g51
sg35
F0.0
sg36
F0.0
sg37
F87410.0
sg38
g52
sg39
F1030329.0
ssg1
(g5
S'\x88\x00\x00\x00\x00\x00\x00\x00'
p824
tp825
Rp826
(dp827
g12
F400.0
sg13
F831299.0
sg14
F0.0
sg15
I00
sg16
F200000.0
sg17
S'george.wasaff@enron.com'
p828
sg19
F22.0
sg20
F-583325.0
sg21
S'WASAFF GEORGE'
p829
sg23
F0.0
sg24
F337.0
sg25
F0.0
sg26
F30.0
sg27
F1425.0
sg28
F0.3141933207333755
sg29
F0.0
sg30
F0.2513507895919837
sg31
F0.055
sg32
F325000.0
sg33
F2056427.0
sg34
F7.0
sg35
F388167.0
sg36
F259996.0
sg37
F1034395.0
sg38
F0.23333333333333334
sg39
F1668260.0
ssg1
(g5
S'\x89\x00\x00\x00\x00\x00\x00\x00'
p830
tp831
Rp832
(dp833
g12
g44
sg13
F0.0
sg14
F51870.0
sg15
I00
sg16
F256191.0
sg17
S'dick.westfahl@enron.com'
p834
sg19
g46
sg20
F-10800.0
sg21
S'WESTFAHL RICHARD K'
p835
sg23
F0.0
sg24
g48
sg25
F0.0
sg26
g49
sg27
F401130.0
sg28
F0.0
sg29
F0.0
sg30
F0.08363872542266133
sg31
g50
sg32
F0.0
sg33
F384930.0
sg34
g51
sg35
F384930.0
sg36
F63744.0
sg37
F762135.0
sg38
g52
sg39
F0.0
ssg1
(g5
S'\x8a\x00\x00\x00\x00\x00\x00\x00'
p836
tp837
Rp838
(dp839
g12
g44
sg13
F0.0
sg14
F0.0
sg15
I00
sg16
F0.0
sg17
g45
sg19
g46
sg20
F0.0
sg21
S'WHALEY DAVID A'
p840
sg23
F0.0
sg24
g48
sg25
F0.0
sg26
g49
sg27
F0.0
sg28
g180
sg29
F0.0
sg30
g181
sg31
g50
sg32
F0.0
sg33
F98718.0
sg34
g51
sg35
F0.0
sg36
F0.0
sg37
F0.0
sg38
g52
sg39
F98718.0
ssg1
(g5
S'\x8b\x00\x00\x00\x00\x00\x00\x00'
p841
tp842
Rp843
(dp844
g12
F6019.0
sg13
F0.0
sg14
F57838.0
sg15
I00
sg16
F808346.0
sg17
S'greg.whalley@enron.com'
p845
sg19
F186.0
sg20
F0.0
sg21
S'WHALLEY LAWRENCE G'
p846
sg23
F0.0
sg24
F3920.0
sg25
F0.0
sg26
F556.0
sg27
F301026.0
sg28
F0.6413581057189047
sg29
F0.0
sg30
F0.10910869608904103
sg31
F0.03090214321315833
sg32
F3000000.0
sg33
F6079137.0
sg34
F24.0
sg35
F2796177.0
sg36
F510364.0
sg37
F4677574.0
sg38
F0.04316546762589928
sg39
F3282960.0
ssg1
(g5
S'\x8c\x00\x00\x00\x00\x00\x00\x00'
p847
tp848
Rp849
(dp850
g12
g44
sg13
F0.0
sg14
F81353.0
sg15
I00
sg16
F0.0
sg17
S'thomas.white@enron.com'
p851
sg19
g46
sg20
F0.0
sg21
S'WHITE JR THOMAS E'
p852
sg23
F0.0
sg24
g48
sg25
F0.0
sg26
g49
sg27
F1085463.0
sg28
F0.23263520370313887
sg29
F0.0
sg30
F0.1641592899766796
sg31
g50
sg32
F450000.0
sg33
F15144123.0
sg34
g51
sg35
F13847074.0
sg36
F317543.0
sg37
F1934359.0
sg38
g52
sg39
F1297049.0
ssg1
(g5
S'\x8d\x00\x00\x00\x00\x00\x00\x00'
p853
tp854
Rp855
(dp856
g12
g44
sg13
F0.0
sg14
F1413.0
sg15
I00
sg16
F0.0
sg17
g45
sg19
g46
sg20
F-25000.0
sg21
S'WINOKUR JR. HERBERT S'
p857
sg23
F0.0
sg24
g48
sg25
F0.0
sg26
g49
sg27
F0.0
sg28
F0.0
sg29
F108579.0
sg30
F0.0
sg31
g50
sg32
F0.0
sg33
F0.0
sg34
g51
sg35
F0.0
sg36
F0.0
sg37
F84992.0
sg38
g52
sg39
F0.0
ssg1
(g5
S'\x8e\x00\x00\x00\x00\x00\x00\x00'
p858
tp859
Rp860
(dp861
g12
g44
sg13
F0.0
sg14
F0.0
sg15
I00
sg16
F0.0
sg17
S'john.wodraska@enron.com'
p862
sg19
g46
sg20
F0.0
sg21
S'WODRASKA JOHN'
p863
sg23
F0.0
sg24
g48
sg25
F0.0
sg26
g49
sg27
F189583.0
sg28
F0.0
sg29
F0.0
sg30
F0.0
sg31
g50
sg32
F0.0
sg33
F0.0
sg34
g51
sg35
F0.0
sg36
F0.0
sg37
F189583.0
sg38
g52
sg39
F0.0
ssg1
(g5
S'\x8f\x00\x00\x00\x00\x00\x00\x00'
p864
tp865
Rp866
(dp867
g12
g44
sg13
F0.0
sg14
F0.0
sg15
I00
sg16
F0.0
sg17
g45
sg19
g46
sg20
F0.0
sg21
S'WROBEL BRUCE'
p868
sg23
F0.0
sg24
g48
sg25
F0.0
sg26
g49
sg27
F0.0
sg28
g180
sg29
F0.0
sg30
g181
sg31
g50
sg32
F0.0
sg33
F139130.0
sg34
g51
sg35
F0.0
sg36
F0.0
sg37
F0.0
sg38
g52
sg39
F139130.0
ssg1
(g5
S'\x90\x00\x00\x00\x00\x00\x00\x00'
p869
tp870
Rp871
(dp872
g12
g44
sg13
F0.0
sg14
F53947.0
sg15
I01
sg16
F0.0
sg17
S'scott.yeager@enron.com'
p873
sg19
g46
sg20
F0.0
sg21
S'YEAGER F SCOTT'
p874
sg23
F0.0
sg24
g48
sg25
F0.0
sg26
g49
sg27
F147950.0
sg28
F0.0
sg29
F0.0
sg30
F0.4396419650291424
sg31
g50
sg32
F0.0
sg33
F11884758.0
sg34
g51
sg35
F3576206.0
sg36
F158403.0
sg37
F360300.0
sg38
g52
sg39
F8308552.0
ssg1
(g5
S'\x91\x00\x00\x00\x00\x00\x00\x00'
p875
tp876
Rp877
(dp878
g12
g44
sg13
F0.0
sg14
F55097.0
sg15
I00
sg16
F0.0
sg17
g45
sg19
g46
sg20
F0.0
sg21
S'YEAP SOON'
p879
sg23
F0.0
sg24
g48
sg25
F0.0
sg26
g49
sg27
F0.0
sg28
F0.0
sg29
F0.0
sg30
F0.0
sg31
g50
sg32
F0.0
sg33
F192758.0
sg34
g51
sg35
F0.0
sg36
F0.0
sg37
F55097.0
sg38
g52
sg39
F192758.0
ss.